Archive member included because of file (symbol)

/home/kosmick/chiffos/ChiffOS/libc/libOSMesa32.a(osmesa.o)
                              ./glxgear.o (OSMesaCreateContext)
/home/kosmick/chiffos/ChiffOS/libc/libOSMesa32.a(context.o)
                              /home/kosmick/chiffos/ChiffOS/libc/libOSMesa32.a(osmesa.o) (_mesa_create_visual)
/home/kosmick/chiffos/ChiffOS/libc/libOSMesa32.a(cpuinfo.o)
                              /home/kosmick/chiffos/ChiffOS/libc/libOSMesa32.a(context.o) (_mesa_get_cpu_features)
/home/kosmick/chiffos/ChiffOS/libc/libOSMesa32.a(debug.o)
                              /home/kosmick/chiffos/ChiffOS/libc/libOSMesa32.a(context.o) (_mesa_print_info)
/home/kosmick/chiffos/ChiffOS/libc/libOSMesa32.a(depth.o)
                              /home/kosmick/chiffos/ChiffOS/libc/libOSMesa32.a(context.o) (_mesa_init_depth)
/home/kosmick/chiffos/ChiffOS/libc/libOSMesa32.a(dlist.o)
                              /home/kosmick/chiffos/ChiffOS/libc/libOSMesa32.a(context.o) (_mesa_init_dlist_table)
/home/kosmick/chiffos/ChiffOS/libc/libOSMesa32.a(enums.o)
                              /home/kosmick/chiffos/ChiffOS/libc/libOSMesa32.a(dlist.o) (_mesa_lookup_enum_by_nr)
/home/kosmick/chiffos/ChiffOS/libc/libOSMesa32.a(eval.o)
                              /home/kosmick/chiffos/ChiffOS/libc/libOSMesa32.a(dlist.o) (_mesa_evaluator_components)
/home/kosmick/chiffos/ChiffOS/libc/libOSMesa32.a(extensions.o)
                              /home/kosmick/chiffos/ChiffOS/libc/libOSMesa32.a(osmesa.o) (_mesa_enable_sw_extensions)
/home/kosmick/chiffos/ChiffOS/libc/libOSMesa32.a(fbobject.o)
                              /home/kosmick/chiffos/ChiffOS/libc/libOSMesa32.a(context.o) (_mesa_init_fbobjects)
/home/kosmick/chiffos/ChiffOS/libc/libOSMesa32.a(feedback.o)
                              /home/kosmick/chiffos/ChiffOS/libc/libOSMesa32.a(context.o) (_mesa_init_feedback)
/home/kosmick/chiffos/ChiffOS/libc/libOSMesa32.a(fog.o)
                              /home/kosmick/chiffos/ChiffOS/libc/libOSMesa32.a(context.o) (_mesa_init_fog)
/home/kosmick/chiffos/ChiffOS/libc/libOSMesa32.a(framebuffer.o)
                              /home/kosmick/chiffos/ChiffOS/libc/libOSMesa32.a(osmesa.o) (_mesa_create_framebuffer)
/home/kosmick/chiffos/ChiffOS/libc/libOSMesa32.a(getstring.o)
                              /home/kosmick/chiffos/ChiffOS/libc/libOSMesa32.a(debug.o) (_mesa_GetString)
/home/kosmick/chiffos/ChiffOS/libc/libOSMesa32.a(hash.o)
                              /home/kosmick/chiffos/ChiffOS/libc/libOSMesa32.a(dlist.o) (_mesa_HashLookup)
/home/kosmick/chiffos/ChiffOS/libc/libOSMesa32.a(hint.o)
                              /home/kosmick/chiffos/ChiffOS/libc/libOSMesa32.a(context.o) (_mesa_init_hint)
/home/kosmick/chiffos/ChiffOS/libc/libOSMesa32.a(histogram.o)
                              /home/kosmick/chiffos/ChiffOS/libc/libOSMesa32.a(context.o) (_mesa_init_histogram)
/home/kosmick/chiffos/ChiffOS/libc/libOSMesa32.a(image.o)
                              /home/kosmick/chiffos/ChiffOS/libc/libOSMesa32.a(histogram.o) (_mesa_swap2)
/home/kosmick/chiffos/ChiffOS/libc/libOSMesa32.a(imports.o)
                              /home/kosmick/chiffos/ChiffOS/libc/libOSMesa32.a(context.o) (_mesa_malloc)
/home/kosmick/chiffos/ChiffOS/libc/libOSMesa32.a(light.o)
                              /home/kosmick/chiffos/ChiffOS/libc/libOSMesa32.a(dlist.o) (_mesa_material_bitmask)
/home/kosmick/chiffos/ChiffOS/libc/libOSMesa32.a(lines.o)
                              /home/kosmick/chiffos/ChiffOS/libc/libOSMesa32.a(context.o) (_mesa_init_line)
/home/kosmick/chiffos/ChiffOS/libc/libOSMesa32.a(matrix.o)
                              /home/kosmick/chiffos/ChiffOS/libc/libOSMesa32.a(context.o) (_mesa_init_matrix)
/home/kosmick/chiffos/ChiffOS/libc/libOSMesa32.a(multisample.o)
                              /home/kosmick/chiffos/ChiffOS/libc/libOSMesa32.a(context.o) (_mesa_init_multisample)
/home/kosmick/chiffos/ChiffOS/libc/libOSMesa32.a(pixel.o)
                              /home/kosmick/chiffos/ChiffOS/libc/libOSMesa32.a(context.o) (_mesa_init_pixel)
/home/kosmick/chiffos/ChiffOS/libc/libOSMesa32.a(pixelstore.o)
                              /home/kosmick/chiffos/ChiffOS/libc/libOSMesa32.a(context.o) (_mesa_init_pixelstore)
/home/kosmick/chiffos/ChiffOS/libc/libOSMesa32.a(points.o)
                              /home/kosmick/chiffos/ChiffOS/libc/libOSMesa32.a(context.o) (_mesa_init_point)
/home/kosmick/chiffos/ChiffOS/libc/libOSMesa32.a(polygon.o)
                              /home/kosmick/chiffos/ChiffOS/libc/libOSMesa32.a(context.o) (_mesa_init_polygon)
/home/kosmick/chiffos/ChiffOS/libc/libOSMesa32.a(queryobj.o)
                              /home/kosmick/chiffos/ChiffOS/libc/libOSMesa32.a(dlist.o) (_mesa_GenQueriesARB)
/home/kosmick/chiffos/ChiffOS/libc/libOSMesa32.a(rastpos.o)
                              /home/kosmick/chiffos/ChiffOS/libc/libOSMesa32.a(context.o) (_mesa_init_rastpos)
/home/kosmick/chiffos/ChiffOS/libc/libOSMesa32.a(renderbuffer.o)
                              /home/kosmick/chiffos/ChiffOS/libc/libOSMesa32.a(osmesa.o) (_mesa_new_renderbuffer)
/home/kosmick/chiffos/ChiffOS/libc/libOSMesa32.a(scissor.o)
                              /home/kosmick/chiffos/ChiffOS/libc/libOSMesa32.a(context.o) (_mesa_set_scissor)
/home/kosmick/chiffos/ChiffOS/libc/libOSMesa32.a(shared.o)
                              /home/kosmick/chiffos/ChiffOS/libc/libOSMesa32.a(context.o) (_mesa_alloc_shared_state)
/home/kosmick/chiffos/ChiffOS/libc/libOSMesa32.a(state.o)
                              /home/kosmick/chiffos/ChiffOS/libc/libOSMesa32.a(fbobject.o) (_mesa_update_state)
/home/kosmick/chiffos/ChiffOS/libc/libOSMesa32.a(stencil.o)
                              /home/kosmick/chiffos/ChiffOS/libc/libOSMesa32.a(state.o) (_mesa_update_stencil)
/home/kosmick/chiffos/ChiffOS/libc/libOSMesa32.a(texcompress_s3tc.o)
                              /home/kosmick/chiffos/ChiffOS/libc/libOSMesa32.a(context.o) (_mesa_init_texture_s3tc)
/home/kosmick/chiffos/ChiffOS/libc/libOSMesa32.a(texcompress_fxt1.o)
                              /home/kosmick/chiffos/ChiffOS/libc/libOSMesa32.a(context.o) (_mesa_init_texture_fxt1)
/home/kosmick/chiffos/ChiffOS/libc/libOSMesa32.a(texenvprogram.o)
                              /home/kosmick/chiffos/ChiffOS/libc/libOSMesa32.a(state.o) (_mesa_get_fixed_func_fragment_program)
/home/kosmick/chiffos/ChiffOS/libc/libOSMesa32.a(teximage.o)
                              /home/kosmick/chiffos/ChiffOS/libc/libOSMesa32.a(dlist.o) (_mesa_is_proxy_texture)
/home/kosmick/chiffos/ChiffOS/libc/libOSMesa32.a(texobj.o)
                              /home/kosmick/chiffos/ChiffOS/libc/libOSMesa32.a(fbobject.o) (_mesa_lookup_texture)
/home/kosmick/chiffos/ChiffOS/libc/libOSMesa32.a(texstate.o)
                              /home/kosmick/chiffos/ChiffOS/libc/libOSMesa32.a(context.o) (_mesa_copy_texture_state)
/home/kosmick/chiffos/ChiffOS/libc/libOSMesa32.a(texstore.o)
                              /home/kosmick/chiffos/ChiffOS/libc/libOSMesa32.a(texcompress_s3tc.o) (_mesa_make_temp_chan_image)
/home/kosmick/chiffos/ChiffOS/libc/libOSMesa32.a(varray.o)
                              /home/kosmick/chiffos/ChiffOS/libc/libOSMesa32.a(dlist.o) (_mesa_VertexAttribPointerNV)
/home/kosmick/chiffos/ChiffOS/libc/libOSMesa32.a(viewport.o)
                              /home/kosmick/chiffos/ChiffOS/libc/libOSMesa32.a(context.o) (_mesa_set_viewport)
/home/kosmick/chiffos/ChiffOS/libc/libOSMesa32.a(vtxfmt.o)
                              /home/kosmick/chiffos/ChiffOS/libc/libOSMesa32.a(context.o) (_mesa_init_exec_vtxfmt)
/home/kosmick/chiffos/ChiffOS/libc/libOSMesa32.a(m_matrix.o)
                              /home/kosmick/chiffos/ChiffOS/libc/libOSMesa32.a(matrix.o) (_math_matrix_mul_matrix)
/home/kosmick/chiffos/ChiffOS/libc/libOSMesa32.a(vbo_context.o)
                              /home/kosmick/chiffos/ChiffOS/libc/libOSMesa32.a(osmesa.o) (_vbo_CreateContext)
/home/kosmick/chiffos/ChiffOS/libc/libOSMesa32.a(vbo_exec.o)
                              /home/kosmick/chiffos/ChiffOS/libc/libOSMesa32.a(vbo_context.o) (vbo_exec_init)
/home/kosmick/chiffos/ChiffOS/libc/libOSMesa32.a(vbo_exec_api.o)
                              /home/kosmick/chiffos/ChiffOS/libc/libOSMesa32.a(vbo_exec.o) (vbo_exec_vtx_init)
/home/kosmick/chiffos/ChiffOS/libc/libOSMesa32.a(vbo_exec_array.o)
                              /home/kosmick/chiffos/ChiffOS/libc/libOSMesa32.a(vbo_exec.o) (vbo_exec_array_init)
/home/kosmick/chiffos/ChiffOS/libc/libOSMesa32.a(vbo_exec_draw.o)
                              /home/kosmick/chiffos/ChiffOS/libc/libOSMesa32.a(vbo_exec_api.o) (vbo_exec_vtx_map)
/home/kosmick/chiffos/ChiffOS/libc/libOSMesa32.a(vbo_exec_eval.o)
                              /home/kosmick/chiffos/ChiffOS/libc/libOSMesa32.a(vbo_exec_api.o) (vbo_exec_eval_update)
/home/kosmick/chiffos/ChiffOS/libc/libOSMesa32.a(vbo_save.o)
                              /home/kosmick/chiffos/ChiffOS/libc/libOSMesa32.a(vbo_context.o) (vbo_save_init)
/home/kosmick/chiffos/ChiffOS/libc/libOSMesa32.a(vbo_save_api.o)
                              /home/kosmick/chiffos/ChiffOS/libc/libOSMesa32.a(vbo_save.o) (vbo_save_NotifyBegin)
/home/kosmick/chiffos/ChiffOS/libc/libOSMesa32.a(vbo_save_draw.o)
                              /home/kosmick/chiffos/ChiffOS/libc/libOSMesa32.a(vbo_save_api.o) (vbo_save_playback_vertex_list)
/home/kosmick/chiffos/ChiffOS/libc/libOSMesa32.a(vbo_save_loopback.o)
                              /home/kosmick/chiffos/ChiffOS/libc/libOSMesa32.a(vbo_save_api.o) (vbo_loopback_vertex_list)
/home/kosmick/chiffos/ChiffOS/libc/libOSMesa32.a(t_context.o)
                              /home/kosmick/chiffos/ChiffOS/libc/libOSMesa32.a(osmesa.o) (_tnl_CreateContext)
/home/kosmick/chiffos/ChiffOS/libc/libOSMesa32.a(t_pipeline.o)
                              /home/kosmick/chiffos/ChiffOS/libc/libOSMesa32.a(t_context.o) (_tnl_install_pipeline)
/home/kosmick/chiffos/ChiffOS/libc/libOSMesa32.a(t_draw.o)
                              /home/kosmick/chiffos/ChiffOS/libc/libOSMesa32.a(t_context.o) (_tnl_draw_prims)
/home/kosmick/chiffos/ChiffOS/libc/libOSMesa32.a(t_vb_program.o)
                              /home/kosmick/chiffos/ChiffOS/libc/libOSMesa32.a(t_pipeline.o) (_tnl_vertex_program_stage)
/home/kosmick/chiffos/ChiffOS/libc/libOSMesa32.a(t_vb_render.o)
                              /home/kosmick/chiffos/ChiffOS/libc/libOSMesa32.a(t_context.o) (_tnl_render_tab_verts)
/home/kosmick/chiffos/ChiffOS/libc/libOSMesa32.a(t_vb_texgen.o)
                              /home/kosmick/chiffos/ChiffOS/libc/libOSMesa32.a(t_pipeline.o) (_tnl_texgen_stage)
/home/kosmick/chiffos/ChiffOS/libc/libOSMesa32.a(t_vb_texmat.o)
                              /home/kosmick/chiffos/ChiffOS/libc/libOSMesa32.a(t_pipeline.o) (_tnl_texture_transform_stage)
/home/kosmick/chiffos/ChiffOS/libc/libOSMesa32.a(t_vb_vertex.o)
                              /home/kosmick/chiffos/ChiffOS/libc/libOSMesa32.a(t_pipeline.o) (_tnl_vertex_transform_stage)
/home/kosmick/chiffos/ChiffOS/libc/libOSMesa32.a(t_vb_fog.o)
                              /home/kosmick/chiffos/ChiffOS/libc/libOSMesa32.a(t_pipeline.o) (_tnl_fog_coordinate_stage)
/home/kosmick/chiffos/ChiffOS/libc/libOSMesa32.a(t_vb_light.o)
                              /home/kosmick/chiffos/ChiffOS/libc/libOSMesa32.a(t_pipeline.o) (_tnl_lighting_stage)
/home/kosmick/chiffos/ChiffOS/libc/libOSMesa32.a(t_vb_normals.o)
                              /home/kosmick/chiffos/ChiffOS/libc/libOSMesa32.a(t_pipeline.o) (_tnl_normal_transform_stage)
/home/kosmick/chiffos/ChiffOS/libc/libOSMesa32.a(t_vb_points.o)
                              /home/kosmick/chiffos/ChiffOS/libc/libOSMesa32.a(t_pipeline.o) (_tnl_point_attenuation_stage)
/home/kosmick/chiffos/ChiffOS/libc/libOSMesa32.a(t_vp_build.o)
                              /home/kosmick/chiffos/ChiffOS/libc/libOSMesa32.a(t_pipeline.o) (_tnl_UpdateFixedFunctionProgram)
/home/kosmick/chiffos/ChiffOS/libc/libOSMesa32.a(t_vertex.o)
                              /home/kosmick/chiffos/ChiffOS/libc/libOSMesa32.a(t_pipeline.o) (_tnl_notify_pipeline_output_change)
/home/kosmick/chiffos/ChiffOS/libc/libOSMesa32.a(t_vertex_generic.o)
                              /home/kosmick/chiffos/ChiffOS/libc/libOSMesa32.a(t_vertex.o) (_tnl_format_info)
/home/kosmick/chiffos/ChiffOS/libc/libOSMesa32.a(arbprogram.o)
                              /home/kosmick/chiffos/ChiffOS/libc/libOSMesa32.a(dlist.o) (_mesa_DeletePrograms)
/home/kosmick/chiffos/ChiffOS/libc/libOSMesa32.a(atifragshader.o)
                              /home/kosmick/chiffos/ChiffOS/libc/libOSMesa32.a(shared.o) (_mesa_new_ati_fragment_shader)
/home/kosmick/chiffos/ChiffOS/libc/libOSMesa32.a(nvprogram.o)
                              /home/kosmick/chiffos/ChiffOS/libc/libOSMesa32.a(dlist.o) (_mesa_AreProgramsResidentNV)
/home/kosmick/chiffos/ChiffOS/libc/libOSMesa32.a(nvvertparse.o)
                              /home/kosmick/chiffos/ChiffOS/libc/libOSMesa32.a(nvprogram.o) (_mesa_parse_nv_vertex_program)
/home/kosmick/chiffos/ChiffOS/libc/libOSMesa32.a(program.o)
                              /home/kosmick/chiffos/ChiffOS/libc/libOSMesa32.a(context.o) (_mesa_reference_program)
/home/kosmick/chiffos/ChiffOS/libc/libOSMesa32.a(prog_cache.o)
                              /home/kosmick/chiffos/ChiffOS/libc/libOSMesa32.a(program.o) (_mesa_new_program_cache)
/home/kosmick/chiffos/ChiffOS/libc/libOSMesa32.a(prog_execute.o)
                              /home/kosmick/chiffos/ChiffOS/libc/libOSMesa32.a(t_vb_program.o) (_mesa_execute_program)
/home/kosmick/chiffos/ChiffOS/libc/libOSMesa32.a(prog_instruction.o)
                              /home/kosmick/chiffos/ChiffOS/libc/libOSMesa32.a(texenvprogram.o) (_mesa_init_instructions)
/home/kosmick/chiffos/ChiffOS/libc/libOSMesa32.a(prog_noise.o)
                              /home/kosmick/chiffos/ChiffOS/libc/libOSMesa32.a(prog_execute.o) (_mesa_noise1)
/home/kosmick/chiffos/ChiffOS/libc/libOSMesa32.a(prog_parameter.o)
                              /home/kosmick/chiffos/ChiffOS/libc/libOSMesa32.a(texenvprogram.o) (_mesa_new_parameter_list)
/home/kosmick/chiffos/ChiffOS/libc/libOSMesa32.a(prog_statevars.o)
                              /home/kosmick/chiffos/ChiffOS/libc/libOSMesa32.a(prog_parameter.o) (_mesa_program_state_flags)
/home/kosmick/chiffos/ChiffOS/libc/libOSMesa32.a(programopt.o)
                              /home/kosmick/chiffos/ChiffOS/libc/libOSMesa32.a(texenvprogram.o) (_mesa_append_fog_code)
/home/kosmick/chiffos/ChiffOS/libc/libOSMesa32.a(shader_api.o)
                              /home/kosmick/chiffos/ChiffOS/libc/libOSMesa32.a(shared.o) (_mesa_free_shader_program_data)
/home/kosmick/chiffos/ChiffOS/libc/libOSMesa32.a(s_context.o)
                              /home/kosmick/chiffos/ChiffOS/libc/libOSMesa32.a(t_vb_program.o) (_swrast_update_texture_samplers)
/home/kosmick/chiffos/ChiffOS/libc/libOSMesa32.a(s_lines.o)
                              /home/kosmick/chiffos/ChiffOS/libc/libOSMesa32.a(s_context.o) (_swrast_add_spec_terms_line)
/home/kosmick/chiffos/ChiffOS/libc/libOSMesa32.a(s_points.o)
                              /home/kosmick/chiffos/ChiffOS/libc/libOSMesa32.a(s_context.o) (_swrast_add_spec_terms_point)
/home/kosmick/chiffos/ChiffOS/libc/libOSMesa32.a(s_span.o)
                              /home/kosmick/chiffos/ChiffOS/libc/libOSMesa32.a(s_context.o) (_swrast_write_index_span)
/home/kosmick/chiffos/ChiffOS/libc/libOSMesa32.a(s_stencil.o)
                              /home/kosmick/chiffos/ChiffOS/libc/libOSMesa32.a(s_span.o) (_swrast_stencil_and_ztest_span)
/home/kosmick/chiffos/ChiffOS/libc/libOSMesa32.a(s_texcombine.o)
                              /home/kosmick/chiffos/ChiffOS/libc/libOSMesa32.a(s_span.o) (_swrast_texture_span)
/home/kosmick/chiffos/ChiffOS/libc/libOSMesa32.a(s_texfilter.o)
                              /home/kosmick/chiffos/ChiffOS/libc/libOSMesa32.a(s_context.o) (_swrast_choose_texture_sample_func)
/home/kosmick/chiffos/ChiffOS/libc/libOSMesa32.a(s_triangle.o)
                              /home/kosmick/chiffos/ChiffOS/libc/libOSMesa32.a(s_context.o) (_swrast_add_spec_terms_triangle)
/home/kosmick/chiffos/ChiffOS/libc/libOSMesa32.a(ss_context.o)
                              /home/kosmick/chiffos/ChiffOS/libc/libOSMesa32.a(osmesa.o) (_swsetup_CreateContext)
/home/kosmick/chiffos/ChiffOS/libc/libOSMesa32.a(ss_triangle.o)
                              /home/kosmick/chiffos/ChiffOS/libc/libOSMesa32.a(ss_context.o) (_swsetup_trifuncs_init)
/home/kosmick/chiffos/ChiffOS/libc/libOSMesa32.a(driverfuncs.o)
                              /home/kosmick/chiffos/ChiffOS/libc/libOSMesa32.a(osmesa.o) (_mesa_init_driver_functions)
/home/kosmick/chiffos/ChiffOS/libc/libOSMesa32.a(slang_compile.o)
                              /home/kosmick/chiffos/ChiffOS/libc/libOSMesa32.a(shader_api.o) (_slang_compile)
/home/kosmick/chiffos/ChiffOS/libc/libOSMesa32.a(slang_compile_function.o)
                              /home/kosmick/chiffos/ChiffOS/libc/libOSMesa32.a(slang_compile.o) (slang_function_construct)
/home/kosmick/chiffos/ChiffOS/libc/libOSMesa32.a(slang_compile_operation.o)
                              /home/kosmick/chiffos/ChiffOS/libc/libOSMesa32.a(slang_compile.o) (slang_operation_construct)
/home/kosmick/chiffos/ChiffOS/libc/libOSMesa32.a(slang_compile_struct.o)
                              /home/kosmick/chiffos/ChiffOS/libc/libOSMesa32.a(slang_compile.o) (_slang_struct_scope_ctr)
/home/kosmick/chiffos/ChiffOS/libc/libOSMesa32.a(slang_compile_variable.o)
                              /home/kosmick/chiffos/ChiffOS/libc/libOSMesa32.a(slang_compile_function.o) (slang_variable_construct)
/home/kosmick/chiffos/ChiffOS/libc/libOSMesa32.a(slang_link.o)
                              /home/kosmick/chiffos/ChiffOS/libc/libOSMesa32.a(shader_api.o) (_slang_link)
/home/kosmick/chiffos/ChiffOS/libc/libOSMesa32.a(slang_log.o)
                              /home/kosmick/chiffos/ChiffOS/libc/libOSMesa32.a(slang_compile.o) (slang_info_log_construct)
/home/kosmick/chiffos/ChiffOS/libc/libOSMesa32.a(slang_mem.o)
                              /home/kosmick/chiffos/ChiffOS/libc/libOSMesa32.a(slang_compile.o) (_slang_new_mempool)
/home/kosmick/chiffos/ChiffOS/libc/libOSMesa32.a(slang_preprocess.o)
                              /home/kosmick/chiffos/ChiffOS/libc/libOSMesa32.a(slang_compile.o) (_slang_preprocess_version)
/home/kosmick/chiffos/ChiffOS/libc/libOSMesa32.a(slang_simplify.o)
                              /home/kosmick/chiffos/ChiffOS/libc/libOSMesa32.a(slang_compile.o) (_slang_simplify)
/home/kosmick/chiffos/ChiffOS/libc/libOSMesa32.a(slang_storage.o)
                              /home/kosmick/chiffos/ChiffOS/libc/libOSMesa32.a(slang_compile.o) (slang_storage_aggregate_destruct)
/home/kosmick/chiffos/ChiffOS/libc/libOSMesa32.a(slang_typeinfo.o)
                              /home/kosmick/chiffos/ChiffOS/libc/libOSMesa32.a(slang_compile.o) (slang_type_specifier_type_from_string)
/home/kosmick/chiffos/ChiffOS/libc/libOSMesa32.a(slang_vartable.o)
                              /home/kosmick/chiffos/ChiffOS/libc/libOSMesa32.a(slang_compile.o) (_slang_new_var_table)
/home/kosmick/chiffos/ChiffOS/libc/libOSMesa32.a(slang_utility.o)
                              /home/kosmick/chiffos/ChiffOS/libc/libOSMesa32.a(slang_compile.o) (slang_string_concat)
/home/kosmick/chiffos/ChiffOS/libc/libOSMesa32.a(dispatch.o)
                              ./glxgear.o (glNewList)
/home/kosmick/chiffos/ChiffOS/libc/libOSMesa32.a(glapi.o)
                              /home/kosmick/chiffos/ChiffOS/libc/libOSMesa32.a(context.o) (_glapi_noop_enable_warnings)
/home/kosmick/chiffos/ChiffOS/libc/libOSMesa32.a(glapi_getproc.o)
                              /home/kosmick/chiffos/ChiffOS/libc/libOSMesa32.a(osmesa.o) (_glapi_get_proc_address)
/home/kosmick/chiffos/ChiffOS/libc/libOSMesa32.a(api_arrayelt.o)
                              /home/kosmick/chiffos/ChiffOS/libc/libOSMesa32.a(vbo_context.o) (_ae_create_context)
/home/kosmick/chiffos/ChiffOS/libc/libOSMesa32.a(api_exec.o)
                              /home/kosmick/chiffos/ChiffOS/libc/libOSMesa32.a(context.o) (_mesa_init_exec_table)
/home/kosmick/chiffos/ChiffOS/libc/libOSMesa32.a(api_loopback.o)
                              /home/kosmick/chiffos/ChiffOS/libc/libOSMesa32.a(dlist.o) (_mesa_loopback_init_api_table)
/home/kosmick/chiffos/ChiffOS/libc/libOSMesa32.a(api_noop.o)
                              /home/kosmick/chiffos/ChiffOS/libc/libOSMesa32.a(vbo_exec_api.o) (_mesa_noop_Rectf)
/home/kosmick/chiffos/ChiffOS/libc/libOSMesa32.a(api_validate.o)
                              /home/kosmick/chiffos/ChiffOS/libc/libOSMesa32.a(vbo_exec_array.o) (_mesa_validate_DrawElements)
/home/kosmick/chiffos/ChiffOS/libc/libOSMesa32.a(accum.o)
                              /home/kosmick/chiffos/ChiffOS/libc/libOSMesa32.a(api_exec.o) (_mesa_ClearAccum)
/home/kosmick/chiffos/ChiffOS/libc/libOSMesa32.a(attrib.o)
                              /home/kosmick/chiffos/ChiffOS/libc/libOSMesa32.a(api_exec.o) (_mesa_PushAttrib)
/home/kosmick/chiffos/ChiffOS/libc/libOSMesa32.a(arrayobj.o)
                              /home/kosmick/chiffos/ChiffOS/libc/libOSMesa32.a(varray.o) (_mesa_new_array_object)
/home/kosmick/chiffos/ChiffOS/libc/libOSMesa32.a(blend.o)
                              /home/kosmick/chiffos/ChiffOS/libc/libOSMesa32.a(api_exec.o) (_mesa_BlendFunc)
/home/kosmick/chiffos/ChiffOS/libc/libOSMesa32.a(bufferobj.o)
                              /home/kosmick/chiffos/ChiffOS/libc/libOSMesa32.a(driverfuncs.o) (_mesa_new_buffer_object)
/home/kosmick/chiffos/ChiffOS/libc/libOSMesa32.a(buffers.o)
                              /home/kosmick/chiffos/ChiffOS/libc/libOSMesa32.a(api_exec.o) (_mesa_DrawBuffer)
/home/kosmick/chiffos/ChiffOS/libc/libOSMesa32.a(clear.o)
                              /home/kosmick/chiffos/ChiffOS/libc/libOSMesa32.a(api_exec.o) (_mesa_ClearIndex)
/home/kosmick/chiffos/ChiffOS/libc/libOSMesa32.a(clip.o)
                              /home/kosmick/chiffos/ChiffOS/libc/libOSMesa32.a(api_exec.o) (_mesa_ClipPlane)
/home/kosmick/chiffos/ChiffOS/libc/libOSMesa32.a(colortab.o)
                              /home/kosmick/chiffos/ChiffOS/libc/libOSMesa32.a(api_exec.o) (_mesa_ColorTable)
/home/kosmick/chiffos/ChiffOS/libc/libOSMesa32.a(convolve.o)
                              /home/kosmick/chiffos/ChiffOS/libc/libOSMesa32.a(api_exec.o) (_mesa_ConvolutionFilter1D)
/home/kosmick/chiffos/ChiffOS/libc/libOSMesa32.a(depthstencil.o)
                              /home/kosmick/chiffos/ChiffOS/libc/libOSMesa32.a(framebuffer.o) (_mesa_new_z24_renderbuffer_wrapper)
/home/kosmick/chiffos/ChiffOS/libc/libOSMesa32.a(dlopen.o)
                              /home/kosmick/chiffos/ChiffOS/libc/libOSMesa32.a(texcompress_s3tc.o) (_mesa_dlopen)
/home/kosmick/chiffos/ChiffOS/libc/libOSMesa32.a(drawpix.o)
                              /home/kosmick/chiffos/ChiffOS/libc/libOSMesa32.a(api_exec.o) (_mesa_DrawPixels)
/home/kosmick/chiffos/ChiffOS/libc/libOSMesa32.a(enable.o)
                              /home/kosmick/chiffos/ChiffOS/libc/libOSMesa32.a(varray.o) (_mesa_EnableClientState)
/home/kosmick/chiffos/ChiffOS/libc/libOSMesa32.a(execmem.o)
                              /home/kosmick/chiffos/ChiffOS/libc/libOSMesa32.a(t_vertex.o) (_mesa_exec_free)
/home/kosmick/chiffos/ChiffOS/libc/libOSMesa32.a(ffvertex_prog.o)
                              /home/kosmick/chiffos/ChiffOS/libc/libOSMesa32.a(state.o) (_mesa_get_fixed_func_vertex_program)
/home/kosmick/chiffos/ChiffOS/libc/libOSMesa32.a(get.o)
                              /home/kosmick/chiffos/ChiffOS/libc/libOSMesa32.a(api_exec.o) (_mesa_GetBooleanv)
/home/kosmick/chiffos/ChiffOS/libc/libOSMesa32.a(mipmap.o)
                              /home/kosmick/chiffos/ChiffOS/libc/libOSMesa32.a(driverfuncs.o) (_mesa_generate_mipmap)
/home/kosmick/chiffos/ChiffOS/libc/libOSMesa32.a(rbadaptors.o)
                              /home/kosmick/chiffos/ChiffOS/libc/libOSMesa32.a(renderbuffer.o) (_mesa_new_renderbuffer_32wrap8)
/home/kosmick/chiffos/ChiffOS/libc/libOSMesa32.a(readpix.o)
                              /home/kosmick/chiffos/ChiffOS/libc/libOSMesa32.a(drawpix.o) (_mesa_error_check_format_type)
/home/kosmick/chiffos/ChiffOS/libc/libOSMesa32.a(shaders.o)
                              /home/kosmick/chiffos/ChiffOS/libc/libOSMesa32.a(api_exec.o) (_mesa_AttachObjectARB)
/home/kosmick/chiffos/ChiffOS/libc/libOSMesa32.a(texcompress.o)
                              /home/kosmick/chiffos/ChiffOS/libc/libOSMesa32.a(teximage.o) (_mesa_get_compressed_formats)
/home/kosmick/chiffos/ChiffOS/libc/libOSMesa32.a(texenv.o)
                              /home/kosmick/chiffos/ChiffOS/libc/libOSMesa32.a(api_exec.o) (_mesa_TexEnvfv)
/home/kosmick/chiffos/ChiffOS/libc/libOSMesa32.a(texformat.o)
                              /home/kosmick/chiffos/ChiffOS/libc/libOSMesa32.a(mipmap.o) (_mesa_texformat_rgba)
/home/kosmick/chiffos/ChiffOS/libc/libOSMesa32.a(texgen.o)
                              /home/kosmick/chiffos/ChiffOS/libc/libOSMesa32.a(api_exec.o) (_mesa_TexGenfv)
/home/kosmick/chiffos/ChiffOS/libc/libOSMesa32.a(texgetimage.o)
                              /home/kosmick/chiffos/ChiffOS/libc/libOSMesa32.a(driverfuncs.o) (_mesa_get_teximage)
/home/kosmick/chiffos/ChiffOS/libc/libOSMesa32.a(texparam.o)
                              /home/kosmick/chiffos/ChiffOS/libc/libOSMesa32.a(api_exec.o) (_mesa_TexParameterf)
/home/kosmick/chiffos/ChiffOS/libc/libOSMesa32.a(texrender.o)
                              /home/kosmick/chiffos/ChiffOS/libc/libOSMesa32.a(driverfuncs.o) (_mesa_render_texture)
/home/kosmick/chiffos/ChiffOS/libc/libOSMesa32.a(m_eval.o)
                              /home/kosmick/chiffos/ChiffOS/libc/libOSMesa32.a(vbo_exec_eval.o) (_math_horner_bezier_curve)
/home/kosmick/chiffos/ChiffOS/libc/libOSMesa32.a(m_translate.o)
                              /home/kosmick/chiffos/ChiffOS/libc/libOSMesa32.a(t_context.o) (_math_init_translate)
/home/kosmick/chiffos/ChiffOS/libc/libOSMesa32.a(m_vector.o)
                              /home/kosmick/chiffos/ChiffOS/libc/libOSMesa32.a(t_vb_program.o) (_mesa_vector4f_clean_elem)
/home/kosmick/chiffos/ChiffOS/libc/libOSMesa32.a(m_xform.o)
                              /home/kosmick/chiffos/ChiffOS/libc/libOSMesa32.a(t_vb_program.o) (_mesa_clip_tab)
/home/kosmick/chiffos/ChiffOS/libc/libOSMesa32.a(vbo_rebase.o)
                              /home/kosmick/chiffos/ChiffOS/libc/libOSMesa32.a(t_draw.o) (vbo_rebase_prims)
/home/kosmick/chiffos/ChiffOS/libc/libOSMesa32.a(vbo_split.o)
                              /home/kosmick/chiffos/ChiffOS/libc/libOSMesa32.a(t_draw.o) (vbo_split_prims)
/home/kosmick/chiffos/ChiffOS/libc/libOSMesa32.a(vbo_split_copy.o)
                              /home/kosmick/chiffos/ChiffOS/libc/libOSMesa32.a(vbo_split.o) (vbo_split_copy)
/home/kosmick/chiffos/ChiffOS/libc/libOSMesa32.a(vbo_split_inplace.o)
                              /home/kosmick/chiffos/ChiffOS/libc/libOSMesa32.a(vbo_split.o) (vbo_split_inplace)
/home/kosmick/chiffos/ChiffOS/libc/libOSMesa32.a(t_rasterpos.o)
                              /home/kosmick/chiffos/ChiffOS/libc/libOSMesa32.a(driverfuncs.o) (_tnl_RasterPos)
/home/kosmick/chiffos/ChiffOS/libc/libOSMesa32.a(arbprogparse.o)
                              /home/kosmick/chiffos/ChiffOS/libc/libOSMesa32.a(arbprogram.o) (_mesa_parse_arb_fragment_program)
/home/kosmick/chiffos/ChiffOS/libc/libOSMesa32.a(grammar_mesa.o)
                              /home/kosmick/chiffos/ChiffOS/libc/libOSMesa32.a(slang_compile.o) (grammar_alloc_free)
/home/kosmick/chiffos/ChiffOS/libc/libOSMesa32.a(nvfragparse.o)
                              /home/kosmick/chiffos/ChiffOS/libc/libOSMesa32.a(nvprogram.o) (_mesa_parse_nv_fragment_program)
/home/kosmick/chiffos/ChiffOS/libc/libOSMesa32.a(prog_optimize.o)
                              /home/kosmick/chiffos/ChiffOS/libc/libOSMesa32.a(slang_compile.o) (_mesa_optimize_program)
/home/kosmick/chiffos/ChiffOS/libc/libOSMesa32.a(prog_print.o)
                              /home/kosmick/chiffos/ChiffOS/libc/libOSMesa32.a(slang_vartable.o) (_mesa_swizzle_string)
/home/kosmick/chiffos/ChiffOS/libc/libOSMesa32.a(prog_uniform.o)
                              /home/kosmick/chiffos/ChiffOS/libc/libOSMesa32.a(slang_link.o) (_mesa_new_uniform_list)
/home/kosmick/chiffos/ChiffOS/libc/libOSMesa32.a(s_aaline.o)
                              /home/kosmick/chiffos/ChiffOS/libc/libOSMesa32.a(s_lines.o) (_swrast_choose_aa_line_function)
/home/kosmick/chiffos/ChiffOS/libc/libOSMesa32.a(s_aatriangle.o)
                              /home/kosmick/chiffos/ChiffOS/libc/libOSMesa32.a(s_triangle.o) (_swrast_set_aa_triangle_function)
/home/kosmick/chiffos/ChiffOS/libc/libOSMesa32.a(s_accum.o)
                              /home/kosmick/chiffos/ChiffOS/libc/libOSMesa32.a(driverfuncs.o) (_swrast_Accum)
/home/kosmick/chiffos/ChiffOS/libc/libOSMesa32.a(s_alpha.o)
                              /home/kosmick/chiffos/ChiffOS/libc/libOSMesa32.a(s_span.o) (_swrast_alpha_test)
/home/kosmick/chiffos/ChiffOS/libc/libOSMesa32.a(s_atifragshader.o)
                              /home/kosmick/chiffos/ChiffOS/libc/libOSMesa32.a(s_span.o) (_swrast_exec_fragment_shader)
/home/kosmick/chiffos/ChiffOS/libc/libOSMesa32.a(s_bitmap.o)
                              /home/kosmick/chiffos/ChiffOS/libc/libOSMesa32.a(driverfuncs.o) (_swrast_Bitmap)
/home/kosmick/chiffos/ChiffOS/libc/libOSMesa32.a(s_blend.o)
                              /home/kosmick/chiffos/ChiffOS/libc/libOSMesa32.a(s_context.o) (_swrast_choose_blend_func)
/home/kosmick/chiffos/ChiffOS/libc/libOSMesa32.a(s_blit.o)
                              /home/kosmick/chiffos/ChiffOS/libc/libOSMesa32.a(driverfuncs.o) (_swrast_BlitFramebuffer)
/home/kosmick/chiffos/ChiffOS/libc/libOSMesa32.a(s_clear.o)
                              /home/kosmick/chiffos/ChiffOS/libc/libOSMesa32.a(driverfuncs.o) (_swrast_Clear)
/home/kosmick/chiffos/ChiffOS/libc/libOSMesa32.a(s_copypix.o)
                              /home/kosmick/chiffos/ChiffOS/libc/libOSMesa32.a(driverfuncs.o) (_swrast_CopyPixels)
/home/kosmick/chiffos/ChiffOS/libc/libOSMesa32.a(s_depth.o)
                              /home/kosmick/chiffos/ChiffOS/libc/libOSMesa32.a(s_span.o) (_swrast_depth_test_span)
/home/kosmick/chiffos/ChiffOS/libc/libOSMesa32.a(s_drawpix.o)
                              /home/kosmick/chiffos/ChiffOS/libc/libOSMesa32.a(driverfuncs.o) (_swrast_DrawPixels)
/home/kosmick/chiffos/ChiffOS/libc/libOSMesa32.a(s_feedback.o)
                              /home/kosmick/chiffos/ChiffOS/libc/libOSMesa32.a(s_triangle.o) (_swrast_feedback_triangle)
/home/kosmick/chiffos/ChiffOS/libc/libOSMesa32.a(s_fog.o)
                              /home/kosmick/chiffos/ChiffOS/libc/libOSMesa32.a(s_span.o) (_swrast_z_to_fogfactor)
/home/kosmick/chiffos/ChiffOS/libc/libOSMesa32.a(s_fragprog.o)
                              /home/kosmick/chiffos/ChiffOS/libc/libOSMesa32.a(s_span.o) (_swrast_exec_fragment_program)
/home/kosmick/chiffos/ChiffOS/libc/libOSMesa32.a(s_imaging.o)
                              /home/kosmick/chiffos/ChiffOS/libc/libOSMesa32.a(driverfuncs.o) (_swrast_CopyColorTable)
/home/kosmick/chiffos/ChiffOS/libc/libOSMesa32.a(s_logic.o)
                              /home/kosmick/chiffos/ChiffOS/libc/libOSMesa32.a(s_span.o) (_swrast_logicop_ci_span)
/home/kosmick/chiffos/ChiffOS/libc/libOSMesa32.a(s_masking.o)
                              /home/kosmick/chiffos/ChiffOS/libc/libOSMesa32.a(s_span.o) (_swrast_mask_rgba_span)
/home/kosmick/chiffos/ChiffOS/libc/libOSMesa32.a(s_readpix.o)
                              /home/kosmick/chiffos/ChiffOS/libc/libOSMesa32.a(driverfuncs.o) (_swrast_ReadPixels)
/home/kosmick/chiffos/ChiffOS/libc/libOSMesa32.a(s_texstore.o)
                              /home/kosmick/chiffos/ChiffOS/libc/libOSMesa32.a(driverfuncs.o) (_swrast_copy_teximage1d)
/home/kosmick/chiffos/ChiffOS/libc/libOSMesa32.a(s_zoom.o)
                              /home/kosmick/chiffos/ChiffOS/libc/libOSMesa32.a(s_copypix.o) (_swrast_write_zoomed_rgba_span)
/home/kosmick/chiffos/ChiffOS/libc/libOSMesa32.a(slang_codegen.o)
                              /home/kosmick/chiffos/ChiffOS/libc/libOSMesa32.a(slang_simplify.o) (_slang_sizeof_type_specifier)
/home/kosmick/chiffos/ChiffOS/libc/libOSMesa32.a(slang_emit.o)
                              /home/kosmick/chiffos/ChiffOS/libc/libOSMesa32.a(slang_codegen.o) (_slang_swizzle_swizzle)
/home/kosmick/chiffos/ChiffOS/libc/libOSMesa32.a(slang_ir.o)
                              /home/kosmick/chiffos/ChiffOS/libc/libOSMesa32.a(slang_emit.o) (_slang_ir_info)
/home/kosmick/chiffos/ChiffOS/libc/libOSMesa32.a(slang_label.o)
                              /home/kosmick/chiffos/ChiffOS/libc/libOSMesa32.a(slang_codegen.o) (_slang_label_new)
/home/kosmick/chiffos/ChiffOS/libc/libOSMesa32.a(slang_print.o)
                              /home/kosmick/chiffos/ChiffOS/libc/libOSMesa32.a(slang_simplify.o) (slang_print_tree)
/home/kosmick/chiffos/ChiffOS/libc/libOSMesa32.a(slang_builtin.o)
                              /home/kosmick/chiffos/ChiffOS/libc/libOSMesa32.a(slang_emit.o) (_slang_alloc_statevar)
/home/kosmick/chiffos/ChiffOS/libc/libc.a(lib_a-assert.o)
                              /home/kosmick/chiffos/ChiffOS/libc/libOSMesa32.a(osmesa.o) (__assert_func)
/home/kosmick/chiffos/ChiffOS/libc/libc.a(lib_a-atoi.o)
                              /home/kosmick/chiffos/ChiffOS/libc/libOSMesa32.a(imports.o) (atoi)
/home/kosmick/chiffos/ChiffOS/libc/libc.a(lib_a-bsearch.o)
                              /home/kosmick/chiffos/ChiffOS/libc/libOSMesa32.a(imports.o) (bsearch)
/home/kosmick/chiffos/ChiffOS/libc/libc.a(lib_a-calloc.o)
                              /home/kosmick/chiffos/ChiffOS/libc/libOSMesa32.a(imports.o) (calloc)
/home/kosmick/chiffos/ChiffOS/libc/libc.a(lib_a-callocr.o)
                              /home/kosmick/chiffos/ChiffOS/libc/libc.a(lib_a-calloc.o) (_calloc_r)
/home/kosmick/chiffos/ChiffOS/libc/libc.a(lib_a-exit.o)
                              /home/kosmick/chiffos/ChiffOS/libc/libOSMesa32.a(imports.o) (exit)
/home/kosmick/chiffos/ChiffOS/libc/libc.a(lib_a-fclose.o)
                              /home/kosmick/chiffos/ChiffOS/libc/libOSMesa32.a(debug.o) (fclose)
/home/kosmick/chiffos/ChiffOS/libc/libc.a(lib_a-fflush.o)
                              /home/kosmick/chiffos/ChiffOS/libc/libc.a(lib_a-fclose.o) (_fflush_r)
/home/kosmick/chiffos/ChiffOS/libc/libc.a(lib_a-ffs.o)
                              /home/kosmick/chiffos/ChiffOS/libc/libOSMesa32.a(imports.o) (ffs)
/home/kosmick/chiffos/ChiffOS/libc/libc.a(lib_a-findfp.o)
                              /home/kosmick/chiffos/ChiffOS/libc/libc.a(lib_a-fclose.o) (__sinit)
/home/kosmick/chiffos/ChiffOS/libc/libc.a(lib_a-fiprintf.o)
                              /home/kosmick/chiffos/ChiffOS/libc/libc.a(lib_a-assert.o) (fiprintf)
/home/kosmick/chiffos/ChiffOS/libc/libc.a(lib_a-fopen.o)
                              /home/kosmick/chiffos/ChiffOS/libc/libOSMesa32.a(debug.o) (fopen)
/home/kosmick/chiffos/ChiffOS/libc/libc.a(lib_a-fprintf.o)
                              /home/kosmick/chiffos/ChiffOS/libc/libOSMesa32.a(debug.o) (fprintf)
/home/kosmick/chiffos/ChiffOS/libc/libc.a(lib_a-fputc.o)
                              /home/kosmick/chiffos/ChiffOS/libc/libOSMesa32.a(debug.o) (fputc)
/home/kosmick/chiffos/ChiffOS/libc/libc.a(lib_a-fputs.o)
                              /home/kosmick/chiffos/ChiffOS/libc/libOSMesa32.a(imports.o) (fputs)
/home/kosmick/chiffos/ChiffOS/libc/libc.a(lib_a-fread.o)
                              /home/kosmick/chiffos/ChiffOS/libc/libOSMesa32.a(shaders.o) (fread)
/home/kosmick/chiffos/ChiffOS/libc/libc.a(lib_a-freer.o)
                              /home/kosmick/chiffos/ChiffOS/libc/libc.a(lib_a-fclose.o) (_free_r)
/home/kosmick/chiffos/ChiffOS/libc/libc.a(lib_a-fseek.o)
                              /home/kosmick/chiffos/ChiffOS/libc/libc.a(lib_a-fopen.o) (_fseek_r)
/home/kosmick/chiffos/ChiffOS/libc/libc.a(lib_a-fstatr.o)
                              /home/kosmick/chiffos/ChiffOS/libc/libc.a(lib_a-fseek.o) (_fstat_r)
/home/kosmick/chiffos/ChiffOS/libc/libc.a(lib_a-fvwrite.o)
                              /home/kosmick/chiffos/ChiffOS/libc/libc.a(lib_a-fputs.o) (__sfvwrite_r)
/home/kosmick/chiffos/ChiffOS/libc/libc.a(lib_a-fwalk.o)
                              /home/kosmick/chiffos/ChiffOS/libc/libc.a(lib_a-findfp.o) (_fwalk)
/home/kosmick/chiffos/ChiffOS/libc/libc.a(lib_a-fwrite.o)
                              /home/kosmick/chiffos/ChiffOS/libc/libOSMesa32.a(debug.o) (fwrite)
/home/kosmick/chiffos/ChiffOS/libc/libc.a(lib_a-getenv.o)
                              /home/kosmick/chiffos/ChiffOS/libc/libOSMesa32.a(imports.o) (getenv)
/home/kosmick/chiffos/ChiffOS/libc/libc.a(lib_a-getenv_r.o)
                              /home/kosmick/chiffos/ChiffOS/libc/libc.a(lib_a-getenv.o) (_findenv_r)
/home/kosmick/chiffos/ChiffOS/libc/libc.a(lib_a-impure.o)
                              /home/kosmick/chiffos/ChiffOS/libc/libc.a(lib_a-exit.o) (_global_impure_ptr)
/home/kosmick/chiffos/ChiffOS/libc/libc.a(lib_a-makebuf.o)
                              /home/kosmick/chiffos/ChiffOS/libc/libc.a(lib_a-fseek.o) (__smakebuf_r)
/home/kosmick/chiffos/ChiffOS/libc/libc.a(lib_a-malloc.o)
                              ./glxgear.o (malloc)
/home/kosmick/chiffos/ChiffOS/libc/libc.a(lib_a-mallocr.o)
                              /home/kosmick/chiffos/ChiffOS/libc/libc.a(lib_a-callocr.o) (_malloc_r)
/home/kosmick/chiffos/ChiffOS/libc/libc.a(lib_a-memchr.o)
                              /home/kosmick/chiffos/ChiffOS/libc/libc.a(lib_a-fvwrite.o) (memchr)
/home/kosmick/chiffos/ChiffOS/libc/libc.a(lib_a-memcmp.o)
                              /home/kosmick/chiffos/ChiffOS/libc/libOSMesa32.a(dlist.o) (memcmp)
/home/kosmick/chiffos/ChiffOS/libc/libc.a(lib_a-memcpy.o)
                              ./glxgear.o (memcpy)
/home/kosmick/chiffos/ChiffOS/libc/libc.a(lib_a-memmove.o)
                              /home/kosmick/chiffos/ChiffOS/libc/libc.a(lib_a-fvwrite.o) (memmove)
/home/kosmick/chiffos/ChiffOS/libc/libc.a(lib_a-memset.o)
                              ./glxgear.o (memset)
/home/kosmick/chiffos/ChiffOS/libc/libc.a(lib_a-mlock.o)
                              /home/kosmick/chiffos/ChiffOS/libc/libc.a(lib_a-freer.o) (__malloc_lock)
/home/kosmick/chiffos/ChiffOS/libc/libc.a(lib_a-openr.o)
                              /home/kosmick/chiffos/ChiffOS/libc/libc.a(lib_a-fopen.o) (_open_r)
/home/kosmick/chiffos/ChiffOS/libc/libc.a(lib_a-printf.o)
                              /home/kosmick/chiffos/ChiffOS/libc/libOSMesa32.a(debug.o) (printf)
/home/kosmick/chiffos/ChiffOS/libc/libc.a(lib_a-putc.o)
                              /home/kosmick/chiffos/ChiffOS/libc/libc.a(lib_a-fputc.o) (_putc_r)
/home/kosmick/chiffos/ChiffOS/libc/libc.a(lib_a-putchar.o)
                              /home/kosmick/chiffos/ChiffOS/libc/libOSMesa32.a(slang_ir.o) (putchar)
/home/kosmick/chiffos/ChiffOS/libc/libc.a(lib_a-puts.o)
                              /home/kosmick/chiffos/ChiffOS/libc/libOSMesa32.a(slang_ir.o) (puts)
/home/kosmick/chiffos/ChiffOS/libc/libc.a(lib_a-qsort.o)
                              /home/kosmick/chiffos/ChiffOS/libc/libOSMesa32.a(prog_optimize.o) (qsort)
/home/kosmick/chiffos/ChiffOS/libc/libc.a(lib_a-reallocr.o)
                              /home/kosmick/chiffos/ChiffOS/libc/libc.a(lib_a-fvwrite.o) (_realloc_r)
/home/kosmick/chiffos/ChiffOS/libc/libc.a(lib_a-reent.o)
                              /home/kosmick/chiffos/ChiffOS/libc/libc.a(lib_a-fstatr.o) (errno)
/home/kosmick/chiffos/ChiffOS/libc/libc.a(lib_a-refill.o)
                              /home/kosmick/chiffos/ChiffOS/libc/libc.a(lib_a-fread.o) (__srefill_r)
/home/kosmick/chiffos/ChiffOS/libc/libc.a(lib_a-s_frexp.o)
                              /home/kosmick/chiffos/ChiffOS/libc/libOSMesa32.a(prog_execute.o) (frexp)
/home/kosmick/chiffos/ChiffOS/libc/libc.a(lib_a-s_ldexp.o)
                              /home/kosmick/chiffos/ChiffOS/libc/libOSMesa32.a(prog_execute.o) (ldexp)
/home/kosmick/chiffos/ChiffOS/libc/libc.a(lib_a-s_scalbn.o)
                              /home/kosmick/chiffos/ChiffOS/libc/libc.a(lib_a-s_ldexp.o) (scalbn)
/home/kosmick/chiffos/ChiffOS/libc/libc.a(lib_a-sbrkr.o)
                              /home/kosmick/chiffos/ChiffOS/libc/libc.a(lib_a-freer.o) (_sbrk_r)
/home/kosmick/chiffos/ChiffOS/libc/libc.a(lib_a-sprintf.o)
                              /home/kosmick/chiffos/ChiffOS/libc/libOSMesa32.a(debug.o) (sprintf)
/home/kosmick/chiffos/ChiffOS/libc/libc.a(lib_a-stdio.o)
                              /home/kosmick/chiffos/ChiffOS/libc/libc.a(lib_a-findfp.o) (__sread)
/home/kosmick/chiffos/ChiffOS/libc/libc.a(lib_a-strchr.o)
                              /home/kosmick/chiffos/ChiffOS/libc/libOSMesa32.a(shader_api.o) (strchr)
/home/kosmick/chiffos/ChiffOS/libc/libc.a(lib_a-strcmp.o)
                              /home/kosmick/chiffos/ChiffOS/libc/libOSMesa32.a(imports.o) (strcmp)
/home/kosmick/chiffos/ChiffOS/libc/libc.a(lib_a-strcpy.o)
                              /home/kosmick/chiffos/ChiffOS/libc/libOSMesa32.a(imports.o) (strcpy)
/home/kosmick/chiffos/ChiffOS/libc/libc.a(lib_a-strlen.o)
                              /home/kosmick/chiffos/ChiffOS/libc/libOSMesa32.a(imports.o) (strlen)
/home/kosmick/chiffos/ChiffOS/libc/libc.a(lib_a-strncat.o)
                              /home/kosmick/chiffos/ChiffOS/libc/libOSMesa32.a(imports.o) (strncat)
/home/kosmick/chiffos/ChiffOS/libc/libc.a(lib_a-strncmp.o)
                              /home/kosmick/chiffos/ChiffOS/libc/libOSMesa32.a(imports.o) (strncmp)
/home/kosmick/chiffos/ChiffOS/libc/libc.a(lib_a-strncpy.o)
                              /home/kosmick/chiffos/ChiffOS/libc/libOSMesa32.a(imports.o) (strncpy)
/home/kosmick/chiffos/ChiffOS/libc/libc.a(lib_a-strstr.o)
                              /home/kosmick/chiffos/ChiffOS/libc/libOSMesa32.a(imports.o) (strstr)
/home/kosmick/chiffos/ChiffOS/libc/libc.a(lib_a-strtod.o)
                              /home/kosmick/chiffos/ChiffOS/libc/libOSMesa32.a(imports.o) (strtod)
/home/kosmick/chiffos/ChiffOS/libc/libc.a(lib_a-strtol.o)
                              /home/kosmick/chiffos/ChiffOS/libc/libc.a(lib_a-atoi.o) (_strtol_r)
/home/kosmick/chiffos/ChiffOS/libc/libc.a(lib_a-svfprintf.o)
                              /home/kosmick/chiffos/ChiffOS/libc/libc.a(lib_a-sprintf.o) (_svfprintf_r)
/home/kosmick/chiffos/ChiffOS/libc/libc.a(lib_a-syscalls.o)
                              ./glxgear.o (sys_reboot)
/home/kosmick/chiffos/ChiffOS/libc/libc.a(lib_a-vfiprintf.o)
                              /home/kosmick/chiffos/ChiffOS/libc/libc.a(lib_a-fiprintf.o) (_vfiprintf_r)
/home/kosmick/chiffos/ChiffOS/libc/libc.a(lib_a-vfprintf.o)
                              /home/kosmick/chiffos/ChiffOS/libc/libc.a(lib_a-fprintf.o) (_vfprintf_r)
/home/kosmick/chiffos/ChiffOS/libc/libc.a(lib_a-vsnprintf.o)
                              /home/kosmick/chiffos/ChiffOS/libc/libOSMesa32.a(imports.o) (vsnprintf)
/home/kosmick/chiffos/ChiffOS/libc/libc.a(lib_a-vsprintf.o)
                              /home/kosmick/chiffos/ChiffOS/libc/libOSMesa32.a(imports.o) (vsprintf)
/home/kosmick/chiffos/ChiffOS/libc/libc.a(lib_a-wbuf.o)
                              /home/kosmick/chiffos/ChiffOS/libc/libc.a(lib_a-putc.o) (__swbuf_r)
/home/kosmick/chiffos/ChiffOS/libc/libc.a(lib_a-writer.o)
                              /home/kosmick/chiffos/ChiffOS/libc/libc.a(lib_a-stdio.o) (_write_r)
/home/kosmick/chiffos/ChiffOS/libc/libc.a(lib_a-wsetup.o)
                              /home/kosmick/chiffos/ChiffOS/libc/libc.a(lib_a-fvwrite.o) (__swsetup_r)
/home/kosmick/chiffos/ChiffOS/libc/libc.a(lib_a-__call_atexit.o)
                              /home/kosmick/chiffos/ChiffOS/libc/libc.a(lib_a-exit.o) (__call_exitprocs)
/home/kosmick/chiffos/ChiffOS/libc/libc.a(lib_a-abort.o)
                              /home/kosmick/chiffos/ChiffOS/libc/libc.a(lib_a-assert.o) (abort)
/home/kosmick/chiffos/ChiffOS/libc/libc.a(lib_a-closer.o)
                              /home/kosmick/chiffos/ChiffOS/libc/libc.a(lib_a-stdio.o) (_close_r)
/home/kosmick/chiffos/ChiffOS/libc/libc.a(lib_a-ctype_.o)
                              /home/kosmick/chiffos/ChiffOS/libc/libc.a(lib_a-strtol.o) (__ctype_ptr__)
/home/kosmick/chiffos/ChiffOS/libc/libc.a(lib_a-dtoa.o)
                              /home/kosmick/chiffos/ChiffOS/libc/libc.a(lib_a-svfprintf.o) (_dtoa_r)
/home/kosmick/chiffos/ChiffOS/libc/libc.a(lib_a-environ.o)
                              /home/kosmick/chiffos/ChiffOS/libc/libc.a(lib_a-getenv_r.o) (environ)
/home/kosmick/chiffos/ChiffOS/libc/libc.a(lib_a-envlock.o)
                              /home/kosmick/chiffos/ChiffOS/libc/libc.a(lib_a-getenv_r.o) (__env_lock)
/home/kosmick/chiffos/ChiffOS/libc/libc.a(lib_a-errno.o)
                              /home/kosmick/chiffos/ChiffOS/libc/libc.a(lib_a-s_ldexp.o) (__errno)
/home/kosmick/chiffos/ChiffOS/libc/libc.a(lib_a-flags.o)
                              /home/kosmick/chiffos/ChiffOS/libc/libc.a(lib_a-fopen.o) (__sflags)
/home/kosmick/chiffos/ChiffOS/libc/libc.a(lib_a-fputwc.o)
                              /home/kosmick/chiffos/ChiffOS/libc/libc.a(lib_a-vfiprintf.o) (_fputwc_r)
/home/kosmick/chiffos/ChiffOS/libc/libc.a(lib_a-gdtoa-gethex.o)
                              /home/kosmick/chiffos/ChiffOS/libc/libc.a(lib_a-strtod.o) (__gethex)
/home/kosmick/chiffos/ChiffOS/libc/libc.a(lib_a-gdtoa-hexnan.o)
                              /home/kosmick/chiffos/ChiffOS/libc/libc.a(lib_a-strtod.o) (__hexnan)
/home/kosmick/chiffos/ChiffOS/libc/libc.a(lib_a-isattyr.o)
                              /home/kosmick/chiffos/ChiffOS/libc/libc.a(lib_a-makebuf.o) (_isatty_r)
/home/kosmick/chiffos/ChiffOS/libc/libc.a(lib_a-locale.o)
                              /home/kosmick/chiffos/ChiffOS/libc/libc.a(lib_a-fputwc.o) (__locale_mb_cur_max)
/home/kosmick/chiffos/ChiffOS/libc/libc.a(lib_a-lseekr.o)
                              /home/kosmick/chiffos/ChiffOS/libc/libc.a(lib_a-stdio.o) (_lseek_r)
/home/kosmick/chiffos/ChiffOS/libc/libc.a(lib_a-mprec.o)
                              /home/kosmick/chiffos/ChiffOS/libc/libc.a(lib_a-strtod.o) (_Balloc)
/home/kosmick/chiffos/ChiffOS/libc/libc.a(lib_a-readr.o)
                              /home/kosmick/chiffos/ChiffOS/libc/libc.a(lib_a-stdio.o) (_read_r)
/home/kosmick/chiffos/ChiffOS/libc/libc.a(lib_a-s_copysign.o)
                              /home/kosmick/chiffos/ChiffOS/libc/libc.a(lib_a-s_scalbn.o) (copysign)
/home/kosmick/chiffos/ChiffOS/libc/libc.a(lib_a-s_finite.o)
                              /home/kosmick/chiffos/ChiffOS/libc/libc.a(lib_a-s_ldexp.o) (finite)
/home/kosmick/chiffos/ChiffOS/libc/libc.a(lib_a-s_fpclassify.o)
                              /home/kosmick/chiffos/ChiffOS/libc/libc.a(lib_a-strtod.o) (__fpclassifyd)
/home/kosmick/chiffos/ChiffOS/libc/libc.a(lib_a-sf_nan.o)
                              /home/kosmick/chiffos/ChiffOS/libc/libc.a(lib_a-strtod.o) (nanf)
/home/kosmick/chiffos/ChiffOS/libc/libc.a(lib_a-signal.o)
                              /home/kosmick/chiffos/ChiffOS/libc/libc.a(lib_a-abort.o) (raise)
/home/kosmick/chiffos/ChiffOS/libc/libc.a(lib_a-signalr.o)
                              /home/kosmick/chiffos/ChiffOS/libc/libc.a(lib_a-signal.o) (_kill_r)
/home/kosmick/chiffos/ChiffOS/libc/libc.a(lib_a-sscanf.o)
                              /home/kosmick/chiffos/ChiffOS/libc/libc.a(lib_a-syscalls.o) (sscanf)
/home/kosmick/chiffos/ChiffOS/libc/libc.a(lib_a-svfiprintf.o)
                              /home/kosmick/chiffos/ChiffOS/libc/libc.a(lib_a-svfprintf.o) (__ssprint_r)
/home/kosmick/chiffos/ChiffOS/libc/libc.a(lib_a-svfscanf.o)
                              /home/kosmick/chiffos/ChiffOS/libc/libc.a(lib_a-sscanf.o) (__ssvfscanf_r)
/home/kosmick/chiffos/ChiffOS/libc/libc.a(lib_a-wcrtomb.o)
                              /home/kosmick/chiffos/ChiffOS/libc/libc.a(lib_a-fputwc.o) (_wcrtomb_r)
/home/kosmick/chiffos/ChiffOS/libc/libc.a(lib_a-wctomb_r.o)
                              /home/kosmick/chiffos/ChiffOS/libc/libc.a(lib_a-wcrtomb.o) (__wctomb)
/home/kosmick/chiffos/ChiffOS/libc/libc.a(lib_a-iswspace.o)
                              /home/kosmick/chiffos/ChiffOS/libc/libc.a(lib_a-svfscanf.o) (iswspace)
/home/kosmick/chiffos/ChiffOS/libc/libc.a(lib_a-mbrtowc.o)
                              /home/kosmick/chiffos/ChiffOS/libc/libc.a(lib_a-svfscanf.o) (_mbrtowc_r)
/home/kosmick/chiffos/ChiffOS/libc/libc.a(lib_a-mbtowc_r.o)
                              /home/kosmick/chiffos/ChiffOS/libc/libc.a(lib_a-mbrtowc.o) (__mbtowc)
/home/kosmick/chiffos/ChiffOS/libc/libc.a(lib_a-sccl.o)
                              /home/kosmick/chiffos/ChiffOS/libc/libc.a(lib_a-svfscanf.o) (__sccl)
/home/kosmick/chiffos/ChiffOS/libc/libc.a(lib_a-strtoul.o)
                              /home/kosmick/chiffos/ChiffOS/libc/libc.a(lib_a-svfscanf.o) (_strtoul_r)
/home/kosmick/chiffos/ChiffOS/libc/libc.a(lib_a-svfiscanf.o)
                              /home/kosmick/chiffos/ChiffOS/libc/libc.a(lib_a-svfscanf.o) (_sungetc_r)
/home/kosmick/chiffos/ChiffOS/libc/libc.a(lib_a-ungetc.o)
                              /home/kosmick/chiffos/ChiffOS/libc/libc.a(lib_a-svfiscanf.o) (__submore)
/home/kosmick/chiffos/ChiffOS/libc/libm.a(lib_a-s_atan.o)
                              /home/kosmick/chiffos/ChiffOS/libc/libOSMesa32.a(imports.o) (atan)
/home/kosmick/chiffos/ChiffOS/libc/libm.a(lib_a-s_cos.o)
                              ./glxgear.o (cos)
/home/kosmick/chiffos/ChiffOS/libc/libm.a(lib_a-s_fabs.o)
                              /home/kosmick/chiffos/ChiffOS/libc/libm.a(lib_a-s_atan.o) (fabs)
/home/kosmick/chiffos/ChiffOS/libc/libm.a(lib_a-s_floor.o)
                              /home/kosmick/chiffos/ChiffOS/libc/libOSMesa32.a(dlist.o) (floor)
/home/kosmick/chiffos/ChiffOS/libc/libm.a(lib_a-s_sin.o)
                              ./glxgear.o (sin)
/home/kosmick/chiffos/ChiffOS/libc/libm.a(lib_a-w_asin.o)
                              /home/kosmick/chiffos/ChiffOS/libc/libOSMesa32.a(imports.o) (asin)
/home/kosmick/chiffos/ChiffOS/libc/libm.a(lib_a-w_exp.o)
                              /home/kosmick/chiffos/ChiffOS/libc/libOSMesa32.a(t_vb_fog.o) (exp)
/home/kosmick/chiffos/ChiffOS/libc/libm.a(lib_a-w_log.o)
                              /home/kosmick/chiffos/ChiffOS/libc/libOSMesa32.a(prog_execute.o) (log)
/home/kosmick/chiffos/ChiffOS/libc/libm.a(lib_a-w_pow.o)
                              /home/kosmick/chiffos/ChiffOS/libc/libOSMesa32.a(imports.o) (pow)
/home/kosmick/chiffos/ChiffOS/libc/libm.a(lib_a-w_sqrt.o)
                              ./glxgear.o (sqrt)
/home/kosmick/chiffos/ChiffOS/libc/libm.a(lib_a-e_asin.o)
                              /home/kosmick/chiffos/ChiffOS/libc/libm.a(lib_a-w_asin.o) (__ieee754_asin)
/home/kosmick/chiffos/ChiffOS/libc/libm.a(lib_a-e_exp.o)
                              /home/kosmick/chiffos/ChiffOS/libc/libm.a(lib_a-w_exp.o) (__ieee754_exp)
/home/kosmick/chiffos/ChiffOS/libc/libm.a(lib_a-e_log.o)
                              /home/kosmick/chiffos/ChiffOS/libc/libm.a(lib_a-w_log.o) (__ieee754_log)
/home/kosmick/chiffos/ChiffOS/libc/libm.a(lib_a-e_pow.o)
                              /home/kosmick/chiffos/ChiffOS/libc/libm.a(lib_a-w_pow.o) (__ieee754_pow)
/home/kosmick/chiffos/ChiffOS/libc/libm.a(lib_a-e_rem_pio2.o)
                              /home/kosmick/chiffos/ChiffOS/libc/libm.a(lib_a-s_cos.o) (__ieee754_rem_pio2)
/home/kosmick/chiffos/ChiffOS/libc/libm.a(lib_a-e_sqrt.o)
                              /home/kosmick/chiffos/ChiffOS/libc/libm.a(lib_a-w_sqrt.o) (__ieee754_sqrt)
/home/kosmick/chiffos/ChiffOS/libc/libm.a(lib_a-k_cos.o)
                              /home/kosmick/chiffos/ChiffOS/libc/libm.a(lib_a-s_cos.o) (__kernel_cos)
/home/kosmick/chiffos/ChiffOS/libc/libm.a(lib_a-k_rem_pio2.o)
                              /home/kosmick/chiffos/ChiffOS/libc/libm.a(lib_a-e_rem_pio2.o) (__kernel_rem_pio2)
/home/kosmick/chiffos/ChiffOS/libc/libm.a(lib_a-k_sin.o)
                              /home/kosmick/chiffos/ChiffOS/libc/libm.a(lib_a-s_cos.o) (__kernel_sin)
/home/kosmick/chiffos/ChiffOS/libc/libm.a(lib_a-s_lib_ver.o)
                              /home/kosmick/chiffos/ChiffOS/libc/libm.a(lib_a-w_asin.o) (__fdlib_version)
/home/kosmick/chiffos/ChiffOS/libc/libm.a(lib_a-s_matherr.o)
                              /home/kosmick/chiffos/ChiffOS/libc/libm.a(lib_a-w_asin.o) (matherr)
/home/kosmick/chiffos/ChiffOS/libc/libm.a(lib_a-s_nan.o)
                              /home/kosmick/chiffos/ChiffOS/libc/libm.a(lib_a-w_asin.o) (nan)
/home/kosmick/chiffos/ChiffOS/libc/libm.a(lib_a-s_rint.o)
                              /home/kosmick/chiffos/ChiffOS/libc/libm.a(lib_a-w_pow.o) (rint)

Allocating common symbols
Common symbol       size              file

DOUBLEBUFFER_vbe    0x4               ./glxgear.o
_mesa_DummyProgram  0x11d8            /home/kosmick/chiffos/ChiffOS/libc/libOSMesa32.a(program.o)
errno               0x4               /home/kosmick/chiffos/ChiffOS/libc/libc.a(lib_a-reent.o)
SCREEN              0x4               ./glxgear.o
__hexdig            0x100             /home/kosmick/chiffos/ChiffOS/libc/libc.a(lib_a-gdtoa-gethex.o)
_mesa_clip_np_tab   0x14              /home/kosmick/chiffos/ChiffOS/libc/libOSMesa32.a(m_xform.o)
_mesa_dotprod_tab   0x14              /home/kosmick/chiffos/ChiffOS/libc/libOSMesa32.a(m_xform.o)
_mesa_ubyte_to_float_color_tab
                    0x400             /home/kosmick/chiffos/ChiffOS/libc/libOSMesa32.a(context.o)
_mesa_copy_tab      0x40              /home/kosmick/chiffos/ChiffOS/libc/libOSMesa32.a(m_xform.o)
_mesa_normal_tab    0x3c              /home/kosmick/chiffos/ChiffOS/libc/libOSMesa32.a(m_xform.o)
_mesa_transform_tab
                    0x14              /home/kosmick/chiffos/ChiffOS/libc/libOSMesa32.a(m_xform.o)
_mesa_clip_tab      0x14              /home/kosmick/chiffos/ChiffOS/libc/libOSMesa32.a(m_xform.o)

Discarded input sections

 .group         0x00000000        0x8 ./glxgear.o
 .group         0x00000000        0x8 ./glxgear.o
 .group         0x00000000        0x8 ./glxgear.o
 .group         0x00000000        0x8 ./glxgear.o
 .group         0x00000000        0x8 ./glxgear.o
 .group         0x00000000        0x8 ./glxgear.o
 .group         0x00000000        0x8 ./glxgear.o
 .group         0x00000000        0x8 ./glxgear.o
 .group         0x00000000        0x8 ./glxgear.o
 .group         0x00000000        0x8 ./glxgear.o
 .group         0x00000000        0x8 ./glxgear.o
 .group         0x00000000        0x8 ./glxgear.o
 .group         0x00000000        0x8 ./glxgear.o
 .group         0x00000000        0x8 ./glxgear.o
 .group         0x00000000        0x8 ./glxgear.o
 .group         0x00000000        0x8 ./glxgear.o
 .group         0x00000000        0x8 ./glxgear.o
 .group         0x00000000        0x8 ./glxgear.o
 .group         0x00000000        0x8 ./glxgear.o
 .group         0x00000000        0x8 ./glxgear.o
 .group         0x00000000        0x8 ./glxgear.o
 .group         0x00000000        0x8 ./glxgear.o
 .group         0x00000000        0x8 ./glxgear.o
 .group         0x00000000        0x8 ./glxgear.o

Memory Configuration

Name             Origin             Length             Attributes
*default*        0x00000000         0xffffffff

Linker script and memory map

LOAD /home/kosmick/chiffos/ChiffOS/user/start.o
                0x01400000                . = 0x1400000

.text           0x01400000   0x1f5a97
 *(.text)
 .text          0x01400000       0x11 /home/kosmick/chiffos/ChiffOS/user/start.o
 *fill*         0x01400011        0x3 
 .text          0x01400014     0x1477 ./glxgear.o
                0x01400014                allocDoubleBuffer_vbe
                0x0140002d                SwapBuffers_vbe
                0x01400054                fps
                0x01401394                main
 *fill*         0x0140148b        0x1 
 .text          0x0140148c     0xbdf2 /home/kosmick/chiffos/ChiffOS/libc/libOSMesa32.a(osmesa.o)
                0x0140c68f                OSMesaCreateContext
                0x0140c6d8                OSMesaCreateContextExt
                0x0140ccad                OSMesaDestroyContext
                0x0140cd4f                OSMesaMakeCurrent
                0x0140ced3                OSMesaGetCurrentContext
                0x0140cef3                OSMesaPixelStore
                0x0140cf7f                OSMesaGetIntegerv
                0x0140d0ab                OSMesaGetDepthBuffer
                0x0140d15d                OSMesaGetColorBuffer
                0x0140d1f0                OSMesaGetProcAddress
                0x0140d246                OSMesaColorClamp
 *fill*         0x0140d27e        0x2 
 .text          0x0140d280     0x223f /home/kosmick/chiffos/ChiffOS/libc/libOSMesa32.a(context.o)
                0x0140d2c2                _mesa_notifySwapBuffers
                0x0140d323                _mesa_create_visual
                0x0140d3f5                _mesa_initialize_visual
                0x0140d60d                _mesa_destroy_visual
                0x0140e23d                _mesa_initialize_context
                0x0140e4b5                _mesa_create_context
                0x0140e519                _mesa_free_context_data
                0x0140e82f                _mesa_destroy_context
                0x0140e853                _mesa_copy_context
                0x0140ef00                _mesa_check_init_viewport
                0x0140ef7d                _mesa_make_current
                0x0140f21d                _mesa_share_state
                0x0140f2a2                _mesa_get_current_context
                0x0140f2af                _mesa_get_dispatch
                0x0140f2ba                _mesa_record_error
                0x0140f301                _mesa_Finish
                0x0140f3d3                _mesa_Flush
                0x0140f4a5                _mesa_set_mvp_with_dp4
 *fill*         0x0140f4bf        0x1 
 .text          0x0140f4c0       0x66 /home/kosmick/chiffos/ChiffOS/libc/libOSMesa32.a(cpuinfo.o)
                0x0140f4c0                _mesa_get_cpu_features
                0x0140f4c5                _mesa_get_cpu_string
 *fill*         0x0140f526        0x2 
 .text          0x0140f528      0xcf2 /home/kosmick/chiffos/ChiffOS/libc/libOSMesa32.a(debug.o)
                0x0140f528                _mesa_print_state
                0x0140f878                _mesa_print_tri_caps
                0x0140fa8d                _mesa_print_info
                0x0140fb66                _mesa_init_debug
                0x014101dd                _mesa_dump_textures
 *fill*         0x0141021a        0x2 
 .text          0x0141021c      0x460 /home/kosmick/chiffos/ChiffOS/libc/libOSMesa32.a(depth.o)
                0x0141021c                _mesa_ClearDepth
                0x01410331                _mesa_DepthFunc
                0x0141041e                _mesa_DepthMask
                0x014104e8                _mesa_DepthBoundsEXT
                0x0141063d                _mesa_init_depth
 .text          0x0141067c    0x15eb9 /home/kosmick/chiffos/ChiffOS/libc/libOSMesa32.a(dlist.o)
                0x014106dd                _mesa_delete_list
                0x01410f85                _mesa_alloc_instruction
                0x01411093                _mesa_alloc_opcode
                0x0141190a                _mesa_save_CallList
                0x0141198d                _mesa_save_CallLists
                0x0141e18a                _mesa_compile_error
                0x0142130e                _mesa_IsList
                0x01421398                _mesa_DeleteLists
                0x0142145b                _mesa_GenLists
                0x0142157d                _mesa_NewList
                0x0142171c                _mesa_EndList
                0x0142188d                _mesa_CallList
                0x01421955                _mesa_CallLists
                0x01421a27                _mesa_ListBase
                0x01423ee7                _mesa_init_dlist_table
                0x01426191                mesa_print_display_list
                0x014261b3                _mesa_save_vtxfmt_init
                0x014264b1                _mesa_init_display_list
 *fill*         0x01426535        0x3 
 .text          0x01426538      0x16c /home/kosmick/chiffos/ChiffOS/libc/libOSMesa32.a(enums.o)
                0x01426573                _mesa_lookup_enum_by_nr
                0x014265e2                _mesa_lookup_prim_by_nr
                0x0142664e                _mesa_lookup_enum_by_name
 .text          0x014266a4     0x2069 /home/kosmick/chiffos/ChiffOS/libc/libOSMesa32.a(eval.o)
                0x014266a4                _mesa_evaluator_components
                0x014269cc                _mesa_copy_map_points1f
                0x01426a66                _mesa_copy_map_points1d
                0x01426b00                _mesa_copy_map_points2f
                0x01426c30                _mesa_copy_map_points2d
                0x01426fbe                _mesa_Map1f
                0x01426ffc                _mesa_Map1d
                0x01427354                _mesa_Map2f
                0x014273ae                _mesa_Map2d
                0x0142743c                _mesa_GetMapdv
                0x01427644                _mesa_GetMapfv
                0x0142784c                _mesa_GetMapiv
                0x01427c6e                _mesa_MapGrid1f
                0x01427d46                _mesa_MapGrid1d
                0x01427d81                _mesa_MapGrid2f
                0x01427eba                _mesa_MapGrid2d
                0x01428038                _mesa_init_eval
                0x01428483                _mesa_free_eval_data
 *fill*         0x0142870d        0x3 
 .text          0x01428710      0x88f /home/kosmick/chiffos/ChiffOS/libc/libOSMesa32.a(extensions.o)
                0x01428710                _mesa_enable_sw_extensions
                0x01428a56                _mesa_enable_imaging_extensions
                0x01428ab5                _mesa_enable_1_3_extensions
                0x01428af6                _mesa_enable_1_4_extensions
                0x01428b91                _mesa_enable_1_5_extensions
                0x01428baa                _mesa_enable_2_0_extensions
                0x01428bff                _mesa_enable_2_1_extensions
                0x01428cfc                _mesa_enable_extension
                0x01428d1e                _mesa_disable_extension
                0x01428d40                _mesa_extension_is_enabled
                0x01428dc9                _mesa_init_extensions
                0x01428e3b                _mesa_make_extension_string
 *fill*         0x01428f9f        0x1 
 .text          0x01428fa0     0x38a4 /home/kosmick/chiffos/ChiffOS/libc/libOSMesa32.a(fbobject.o)
                0x01428fc0                _mesa_init_fbobjects
                0x01428fd9                _mesa_lookup_renderbuffer
                0x0142900b                _mesa_lookup_framebuffer
                0x0142904f                _mesa_get_attachment
                0x014290dc                _mesa_remove_attachment
                0x01429169                _mesa_set_texture_attachment
                0x01429278                _mesa_set_renderbuffer_attachment
                0x014292c1                _mesa_framebuffer_renderbuffer
                0x01429769                _mesa_test_framebuffer_completeness
                0x01429d99                _mesa_IsRenderbufferEXT
                0x01429e06                _mesa_BindRenderbufferEXT
                0x0142a030                _mesa_DeleteRenderbuffersEXT
                0x0142a1ec                _mesa_GenRenderbuffersEXT
                0x0142a2c1                _mesa_base_fbo_format
                0x0142a7de                _mesa_RenderbufferStorageEXT
                0x0142a80e                _mesa_RenderbufferStorageMultisample
                0x0142a83d                _mesa_GetRenderbufferParameterivEXT
                0x0142aa77                _mesa_IsFramebufferEXT
                0x0142abed                _mesa_BindFramebufferEXT
                0x0142af3a                _mesa_DeleteFramebuffersEXT
                0x0142b0c4                _mesa_GenFramebuffersEXT
                0x0142b199                _mesa_CheckFramebufferStatusEXT
                0x0142b75a                _mesa_FramebufferTexture1DEXT
                0x0142b7d4                _mesa_FramebufferTexture2DEXT
                0x0142b870                _mesa_FramebufferTexture3DEXT
                0x0142b8e9                _mesa_FramebufferTextureLayerEXT
                0x0142b937                _mesa_FramebufferRenderbufferEXT
                0x0142bc0f                _mesa_GetFramebufferAttachmentParameterivEXT
                0x0142c2a4                _mesa_GenerateMipmapEXT
                0x0142c43b                _mesa_BlitFramebufferEXT
 .text          0x0142c844      0xe05 /home/kosmick/chiffos/ChiffOS/libc/libOSMesa32.a(feedback.o)
                0x0142c890                _mesa_FeedbackBuffer
                0x0142ca88                _mesa_PassThrough
                0x0142cb34                _mesa_feedback_vertex
                0x0142cca9                _mesa_SelectBuffer
                0x0142cdf0                _mesa_update_hitflag
                0x0142cf8f                _mesa_InitNames
                0x0142d07c                _mesa_LoadName
                0x0142d18e                _mesa_PushName
                0x0142d28b                _mesa_PopName
                0x0142d377                _mesa_RenderMode
                0x0142d5c2                _mesa_init_feedback
 *fill*         0x0142d649        0x3 
 .text          0x0142d64c      0x8a2 /home/kosmick/chiffos/ChiffOS/libc/libOSMesa32.a(fog.o)
                0x0142d64c                _mesa_Fogf
                0x0142d666                _mesa_Fogi
                0x0142d686                _mesa_Fogiv
                0x0142d77f                _mesa_Fogfv
                0x0142de3d                _mesa_init_fog
 *fill*         0x0142deee        0x2 
 .text          0x0142def0     0x13db /home/kosmick/chiffos/ChiffOS/libc/libOSMesa32.a(framebuffer.o)
                0x0142df7e                _mesa_create_framebuffer
                0x0142dfda                _mesa_new_framebuffer
                0x0142e085                _mesa_initialize_framebuffer
                0x0142e1d2                _mesa_destroy_framebuffer
                0x0142e1f6                _mesa_free_framebuffer_data
                0x0142e301                _mesa_reference_framebuffer
                0x0142e3de                _mesa_resize_framebuffer
                0x0142e606                _mesa_resizebuffers
                0x0142e836                _mesa_ResizeBuffersMESA
                0x0142e941                _mesa_update_draw_buffer_bounds
                0x0142eaeb                _mesa_update_framebuffer_visual
                0x0142ecef                _mesa_update_depth_buffer
                0x0142eda3                _mesa_update_stencil_buffer
                0x0142f02e                _mesa_update_framebuffer
                0x0142f07a                _mesa_source_buffer_exists
                0x0142f1aa                _mesa_dest_buffer_exists
 *fill*         0x0142f2cb        0x1 
 .text          0x0142f2cc      0x705 /home/kosmick/chiffos/ChiffOS/libc/libOSMesa32.a(getstring.o)
                0x0142f594                _mesa_GetString
                0x0142f75f                _mesa_GetPointerv
                0x0142f975                _mesa_GetError
 *fill*         0x0142f9d1        0x3 
 .text          0x0142f9d4      0x698 /home/kosmick/chiffos/ChiffOS/libc/libOSMesa32.a(hash.o)
                0x0142f9d4                _mesa_NewHashTable
                0x0142f9ee                _mesa_DeleteHashTable
                0x0142fa8c                _mesa_HashLookup
                0x0142fb2e                _mesa_HashInsert
                0x0142fc23                _mesa_HashRemove
                0x0142fd18                _mesa_HashDeleteAll
                0x0142fda2                _mesa_HashWalk
                0x0142fe06                _mesa_HashFirstEntry
                0x0142fe6c                _mesa_HashNextEntry
                0x0142ff54                _mesa_HashPrint
                0x0142ffdf                _mesa_HashFindFreeKeyBlock
 .text          0x0143006c      0x5a6 /home/kosmick/chiffos/ChiffOS/libc/libOSMesa32.a(hint.o)
                0x0143006c                _mesa_Hint
                0x01430598                _mesa_init_hint
 *fill*         0x01430612        0x2 
 .text          0x01430614     0x5ad1 /home/kosmick/chiffos/ChiffOS/libc/libOSMesa32.a(histogram.o)
                0x01434ac4                _mesa_GetMinmax
                0x01434fe1                _mesa_GetHistogram
                0x01435364                _mesa_GetHistogramParameterfv
                0x0143552b                _mesa_GetHistogramParameteriv
                0x014356aa                _mesa_GetMinmaxParameterfv
                0x014357af                _mesa_GetMinmaxParameteriv
                0x0143589d                _mesa_Histogram
                0x01435bcd                _mesa_Minmax
                0x01435cfc                _mesa_ResetHistogram
                0x01435e46                _mesa_ResetMinmax
                0x01435f8f                _mesa_init_histogram
 *fill*         0x014360e5        0x3 
 .text          0x014360e8    0x195fd /home/kosmick/chiffos/ChiffOS/libc/libOSMesa32.a(image.o)
                0x014360e8                _mesa_type_is_packed
                0x014361c2                _mesa_swap2
                0x0143621e                _mesa_swap4
                0x0143628f                _mesa_sizeof_type
                0x0143632c                _mesa_sizeof_packed_type
                0x01436551                _mesa_components_in_format
                0x01436637                _mesa_bytes_per_pixel
                0x01436852                _mesa_is_legal_format_and_type
                0x01436a98                _mesa_image_address
                0x01436ccb                _mesa_image_address1d
                0x01436d21                _mesa_image_address2d
                0x01436d75                _mesa_image_address3d
                0x01436dc8                _mesa_image_row_stride
                0x01436e8e                _mesa_image_image_stride
                0x01436f6a                _mesa_unpack_polygon_stipple
                0x01437015                _mesa_pack_polygon_stipple
                0x014370f3                _mesa_unpack_bitmap
                0x01437364                _mesa_pack_bitmap
                0x01437585                _mesa_scale_and_bias_rgba
                0x014376d3                _mesa_map_rgba
                0x01437a71                _mesa_transform_rgba
                0x01437c69                _mesa_lookup_rgba_float
                0x0143870c                _mesa_lookup_rgba_ubyte
                0x01439698                _mesa_map_ci_to_rgba
                0x014397e2                _mesa_map_ci8_to_rgba8
                0x01439918                _mesa_scale_and_bias_depth
                0x014399a6                _mesa_scale_and_bias_depth_uint
                0x01439fb3                _mesa_apply_rgba_transfer_ops
                0x0143a496                _mesa_apply_ci_transfer_ops
                0x0143a59e                _mesa_apply_stencil_transfer_ops
                0x0143a70c                _mesa_pack_rgba_span_float
                0x0144a72d                _mesa_unpack_color_span_chan
                0x0144b231                _mesa_unpack_color_span_float
                0x0144b7b7                _mesa_unpack_dudv_span_byte
                0x0144b92e                _mesa_unpack_index_span
                0x0144bafa                _mesa_pack_index_span
                0x0144be7d                _mesa_unpack_stencil_span
                0x0144c0ea                _mesa_pack_stencil_span
                0x0144c587                _mesa_unpack_depth_span
                0x0144d2a7                _mesa_pack_depth_span
                0x0144d7ec                _mesa_pack_depth_stencil_span
                0x0144d983                _mesa_unpack_image
                0x0144dd2e                _mesa_convert_colors
                0x0144ec72                _mesa_clip_drawpixels
                0x0144eec3                _mesa_clip_readpixels
                0x0144f000                _mesa_clip_copytexsubimage
                0x0144f0a6                _mesa_clip_to_region
                0x0144f3fd                _mesa_clip_blit
 *fill*         0x0144f6e5        0x3 
 .text          0x0144f6e8      0xf1e /home/kosmick/chiffos/ChiffOS/libc/libOSMesa32.a(imports.o)
                0x0144f6e8                _mesa_malloc
                0x0144f6fb                _mesa_calloc
                0x0144f716                _mesa_free
                0x0144f729                _mesa_align_malloc
                0x0144f777                _mesa_align_calloc
                0x0144f7c5                _mesa_align_free
                0x0144f7e9                _mesa_align_realloc
                0x0144f854                _mesa_realloc
                0x0144f8b8                _mesa_memcpy
                0x0144f8d9                _mesa_memset
                0x0144f8fa                _mesa_memset16
                0x0144f927                _mesa_bzero
                0x0144f949                _mesa_memcmp
                0x0144f96a                _mesa_sin
                0x0144f990                _mesa_sinf
                0x0144f9a3                _mesa_cos
                0x0144f9c9                _mesa_asinf
                0x0144f9dc                _mesa_atanf
                0x0144f9ef                _mesa_sqrtd
                0x0144fa15                _mesa_init_sqrt_table
                0x0144facc                _mesa_sqrtf
                0x0144fb4b                _mesa_inv_sqrtf
                0x0144fbda                _mesa_pow
                0x0144fc1a                _mesa_ffs
                0x0144fc2d                _mesa_ffsll
                0x0144fc85                _mesa_bitcount
                0x0144fcab                _mesa_float_to_half
                0x0144fe8a                _mesa_half_to_float
                0x0144ff9f                _mesa_bsearch
                0x0144ffce                _mesa_getenv
                0x0144ffe1                _mesa_strstr
                0x0144fffb                _mesa_strncat
                0x0145001c                _mesa_strcpy
                0x01450036                _mesa_strncpy
                0x01450057                _mesa_strlen
                0x0145006a                _mesa_strcmp
                0x01450084                _mesa_strncmp
                0x014500a5                _mesa_strdup
                0x014500f2                _mesa_atoi
                0x01450105                _mesa_strtod
                0x01450125                _mesa_sprintf
                0x01450152                _mesa_snprintf
                0x01450186                _mesa_printf
                0x014501b2                _mesa_fprintf
                0x01450202                _mesa_vsprintf
                0x0145032b                _mesa_warning
                0x01450395                _mesa_problem
                0x014504b8                _mesa_error
                0x014505f0                _mesa_debug
                0x014505f5                _mesa_exit
 *fill*         0x01450606        0x2 
 .text          0x01450608     0x49b7 /home/kosmick/chiffos/ChiffOS/libc/libOSMesa32.a(light.o)
                0x01450608                _mesa_ShadeModel
                0x01450735                _mesa_light
                0x01450ebb                _mesa_Lightf
                0x01450edc                _mesa_Lightfv
                0x014513e2                _mesa_Lighti
                0x01451403                _mesa_Lightiv
                0x01451548                _mesa_GetLightfv
                0x014519ce                _mesa_GetLightiv
                0x01452059                _mesa_LightModelfv
                0x0145242a                _mesa_LightModeliv
                0x01452528                _mesa_LightModeli
                0x01452542                _mesa_LightModelf
                0x0145255c                _mesa_material_bitmask
                0x01452680                _mesa_copy_materials
                0x01452703                _mesa_update_material
                0x01452b74                _mesa_update_color_material
                0x01452c16                _mesa_ColorMaterial
                0x01452da4                _mesa_GetMaterialfv
                0x014530bd                _mesa_GetMaterialiv
                0x01453750                _mesa_invalidate_spot_exp_table
                0x0145385b                _mesa_invalidate_shine_table
                0x01453ac6                _mesa_validate_all_lighting_tables
                0x01453bde                _mesa_update_lighting
                0x014547f9                _mesa_update_tnl_spaces
                0x0145490a                _mesa_allow_light_in_model
                0x01454d76                _mesa_init_lighting
                0x01454f67                _mesa_free_lighting_data
 *fill*         0x01454fbf        0x1 
 .text          0x01454fc0      0x280 /home/kosmick/chiffos/ChiffOS/libc/libOSMesa32.a(lines.o)
                0x01454fc0                _mesa_LineWidth
                0x014550ef                _mesa_LineStipple
                0x01455200                _mesa_init_line
 .text          0x01455240     0x153b /home/kosmick/chiffos/ChiffOS/libc/libOSMesa32.a(matrix.o)
                0x01455240                _mesa_Frustum
                0x014553c0                _mesa_Ortho
                0x01455528                _mesa_MatrixMode
                0x014557b0                _mesa_PushMatrix
                0x014558ea                _mesa_PopMatrix
                0x01455a24                _mesa_LoadIdentity
                0x01455acd                _mesa_LoadMatrixf
                0x01455b88                _mesa_MultMatrixf
                0x01455c43                _mesa_Rotatef
                0x01455d17                _mesa_Scalef
                0x01455dd8                _mesa_Translatef
                0x01455e99                _mesa_LoadMatrixd
                0x01455edc                _mesa_MultMatrixd
                0x01455f1f                _mesa_Rotated
                0x01455f7b                _mesa_Scaled
                0x01455fc2                _mesa_Translated
                0x01456009                _mesa_LoadTransposeMatrixfARB
                0x01456034                _mesa_LoadTransposeMatrixdARB
                0x0145605f                _mesa_MultTransposeMatrixfARB
                0x0145608a                _mesa_MultTransposeMatrixdARB
                0x014561a2                _mesa_update_modelview_project
                0x01456490                _mesa_init_matrix
                0x014565a4                _mesa_free_matrix_data
                0x01456656                _mesa_init_transform
 *fill*         0x0145677b        0x1 
 .text          0x0145677c      0x120 /home/kosmick/chiffos/ChiffOS/libc/libOSMesa32.a(multisample.o)
                0x0145677c                _mesa_SampleCoverageARB
                0x01456857                _mesa_init_multisample
 .text          0x0145689c     0x2be1 /home/kosmick/chiffos/ChiffOS/libc/libOSMesa32.a(pixel.o)
                0x014568b2                _mesa_PixelZoom
                0x01456be8                _mesa_PixelMapfv
                0x01456e38                _mesa_PixelMapuiv
                0x0145713c                _mesa_PixelMapusv
                0x0145742e                _mesa_GetPixelMapfv
                0x0145765a                _mesa_GetPixelMapuiv
                0x014578a7                _mesa_GetPixelMapusv
                0x01457c80                _mesa_PixelTransferf
                0x01458b3e                _mesa_PixelTransferi
                0x01458e57                _mesa_update_pixel
                0x01458eb4                _mesa_init_pixel
 *fill*         0x0145947d        0x3 
 .text          0x01459480      0xcc9 /home/kosmick/chiffos/ChiffOS/libc/libOSMesa32.a(pixelstore.o)
                0x01459480                _mesa_PixelStorei
                0x01459f79                _mesa_PixelStoref
                0x01459fac                _mesa_init_pixelstore
 *fill*         0x0145a149        0x3 
 .text          0x0145a14c      0x923 /home/kosmick/chiffos/ChiffOS/libc/libOSMesa32.a(points.o)
                0x0145a14c                _mesa_PointSize
                0x0145a23c                _mesa_PointParameteri
                0x0145a25c                _mesa_PointParameteriv
                0x0145a2af                _mesa_PointParameterf
                0x0145a2c9                _mesa_PointParameterfv
                0x0145a988                _mesa_init_point
 *fill*         0x0145aa6f        0x1 
 .text          0x0145aa70      0x9dd /home/kosmick/chiffos/ChiffOS/libc/libOSMesa32.a(polygon.o)
                0x0145aa70                _mesa_CullFace
                0x0145ab6a                _mesa_FrontFace
                0x0145ac73                _mesa_PolygonMode
                0x0145aee5                _mesa_polygon_stipple
                0x0145b037                _mesa_PolygonStipple
                0x0145b0e9                _mesa_GetPolygonStipple
                0x0145b271                _mesa_PolygonOffset
                0x0145b35e                _mesa_PolygonOffsetEXT
                0x0145b38f                _mesa_init_polygon
 *fill*         0x0145b44d        0x3 
 .text          0x0145b450      0xea8 /home/kosmick/chiffos/ChiffOS/libc/libOSMesa32.a(queryobj.o)
                0x0145b450                _mesa_new_query_object
                0x0145b498                _mesa_begin_query
                0x0145b49d                _mesa_end_query
                0x0145b4a9                _mesa_wait_query
                0x0145b4df                _mesa_check_query
                0x0145b4e4                _mesa_delete_query
                0x0145b517                _mesa_GenQueriesARB
                0x0145b676                _mesa_DeleteQueriesARB
                0x0145b7a8                _mesa_IsQueryARB
                0x0145b807                _mesa_BeginQueryARB
                0x0145baa7                _mesa_EndQueryARB
                0x0145bc33                _mesa_GetQueryivARB
                0x0145bd66                _mesa_GetQueryObjectivARB
                0x0145bebb                _mesa_GetQueryObjectuivARB
                0x0145c004                _mesa_GetQueryObjecti64vEXT
                0x0145c13a                _mesa_GetQueryObjectui64vEXT
                0x0145c270                _mesa_init_query
                0x0145c2bf                _mesa_free_query_data
 .text          0x0145c2f8     0x12c1 /home/kosmick/chiffos/ChiffOS/libc/libOSMesa32.a(rastpos.o)
                0x0145c3f4                _mesa_RasterPos2d
                0x0145c43a                _mesa_RasterPos2f
                0x0145c466                _mesa_RasterPos2i
                0x0145c494                _mesa_RasterPos2s
                0x0145c4d0                _mesa_RasterPos3d
                0x0145c520                _mesa_RasterPos3f
                0x0145c54a                _mesa_RasterPos3i
                0x0145c576                _mesa_RasterPos3s
                0x0145c5b7                _mesa_RasterPos4d
                0x0145c613                _mesa_RasterPos4f
                0x0145c63b                _mesa_RasterPos4i
                0x0145c667                _mesa_RasterPos4s
                0x0145c6b4                _mesa_RasterPos2dv
                0x0145c6e9                _mesa_RasterPos2fv
                0x0145c71e                _mesa_RasterPos2iv
                0x0145c75f                _mesa_RasterPos2sv
                0x0145c7a4                _mesa_RasterPos3dv
                0x0145c7dc                _mesa_RasterPos3fv
                0x0145c818                _mesa_RasterPos3iv
                0x0145c862                _mesa_RasterPos3sv
                0x0145c8b2                _mesa_RasterPos4dv
                0x0145c8ef                _mesa_RasterPos4fv
                0x0145c92d                _mesa_RasterPos4iv
                0x0145c982                _mesa_RasterPos4sv
                0x0145ce83                _mesa_WindowPos2dMESA
                0x0145cec9                _mesa_WindowPos2fMESA
                0x0145cef5                _mesa_WindowPos2iMESA
                0x0145cf23                _mesa_WindowPos2sMESA
                0x0145cf5f                _mesa_WindowPos3dMESA
                0x0145cfaf                _mesa_WindowPos3fMESA
                0x0145cfd9                _mesa_WindowPos3iMESA
                0x0145d005                _mesa_WindowPos3sMESA
                0x0145d046                _mesa_WindowPos4dMESA
                0x0145d0a2                _mesa_WindowPos4fMESA
                0x0145d0ca                _mesa_WindowPos4iMESA
                0x0145d0f6                _mesa_WindowPos4sMESA
                0x0145d143                _mesa_WindowPos2dvMESA
                0x0145d178                _mesa_WindowPos2fvMESA
                0x0145d1ad                _mesa_WindowPos2ivMESA
                0x0145d1ee                _mesa_WindowPos2svMESA
                0x0145d233                _mesa_WindowPos3dvMESA
                0x0145d26b                _mesa_WindowPos3fvMESA
                0x0145d2a7                _mesa_WindowPos3ivMESA
                0x0145d2f1                _mesa_WindowPos3svMESA
                0x0145d341                _mesa_WindowPos4dvMESA
                0x0145d37e                _mesa_WindowPos4fvMESA
                0x0145d3bc                _mesa_WindowPos4ivMESA
                0x0145d411                _mesa_WindowPos4svMESA
                0x0145d46e                _mesa_init_rastpos
 *fill*         0x0145d5b9        0x3 
 .text          0x0145d5bc     0x3c09 /home/kosmick/chiffos/ChiffOS/libc/libOSMesa32.a(renderbuffer.o)
                0x0145eeb6                _mesa_soft_renderbuffer_storage
                0x0145fcf1                _mesa_init_renderbuffer
                0x0145fe23                _mesa_new_renderbuffer
                0x0145fe55                _mesa_delete_renderbuffer
                0x0145fe80                _mesa_new_soft_renderbuffer
                0x0145feb0                _mesa_add_color_renderbuffers
                0x01460075                _mesa_add_color_index_renderbuffers
                0x014601e3                _mesa_add_alpha_renderbuffers
                0x01460477                _mesa_copy_soft_alpha_renderbuffers
                0x014604ef                _mesa_add_depth_renderbuffer
                0x014605e3                _mesa_add_stencil_renderbuffer
                0x014606c5                _mesa_add_accum_renderbuffer
                0x014607a5                _mesa_add_aux_renderbuffers
                0x014608e4                _mesa_add_soft_renderbuffers
                0x01460d6f                _mesa_add_renderbuffer
                0x01460f78                _mesa_remove_renderbuffer
                0x01461003                _mesa_reference_renderbuffer
                0x0146117a                _mesa_new_depthstencil_renderbuffer
 *fill*         0x014611c5        0x3 
 .text          0x014611c8      0x1bf /home/kosmick/chiffos/ChiffOS/libc/libOSMesa32.a(scissor.o)
                0x014611c8                _mesa_Scissor
                0x01461253                _mesa_set_scissor
                0x01461344                _mesa_init_scissor
 *fill*         0x01461387        0x1 
 .text          0x01461388      0x619 /home/kosmick/chiffos/ChiffOS/libc/libOSMesa32.a(shared.o)
                0x014613ca                _mesa_alloc_shared_state
                0x0146176c                _mesa_free_shared_state
 *fill*         0x014619a1        0x3 
 .text          0x014619a4      0xdd3 /home/kosmick/chiffos/ChiffOS/libc/libOSMesa32.a(state.o)
                0x014624a3                _mesa_update_state_locked
                0x014626d5                _mesa_update_state
                0x014626fe                _mesa_set_varying_vp_inputs
                0x01462736                _mesa_set_vp_override
 *fill*         0x01462777        0x1 
 .text          0x01462778     0x1494 /home/kosmick/chiffos/ChiffOS/libc/libOSMesa32.a(stencil.o)
                0x014627d6                _mesa_ClearStencil
                0x01462899                _mesa_StencilFuncSeparateATI
                0x01462ad2                _mesa_StencilFunc
                0x01462df1                _mesa_StencilMask
                0x01462fc3                _mesa_StencilOp
                0x01463317                _mesa_ActiveStencilFaceEXT
                0x0146340b                _mesa_StencilOpSeparate
                0x014636ac                _mesa_StencilFuncSeparate
                0x01463868                _mesa_StencilMaskSeparate
                0x01463979                _mesa_update_stencil
                0x01463ac1                _mesa_init_stencil
 .text          0x01463c0c      0xf3e /home/kosmick/chiffos/ChiffOS/libc/libOSMesa32.a(texcompress_s3tc.o)
                0x01463cc3                _mesa_init_texture_s3tc
 *fill*         0x01464b4a        0x2 
 .text          0x01464b4c     0x3fdd /home/kosmick/chiffos/ChiffOS/libc/libOSMesa32.a(texcompress_fxt1.o)
                0x01464b4c                _mesa_init_texture_fxt1
                0x01468a8c                fxt1_decode_1
 *fill*         0x01468b29        0x3 
 .text          0x01468b2c     0x3b67 /home/kosmick/chiffos/ChiffOS/libc/libOSMesa32.a(texenvprogram.o)
                0x0146c5d3                _mesa_get_fixed_func_fragment_program
 *fill*         0x0146c693        0x1 
 .text          0x0146c694     0x7963 /home/kosmick/chiffos/ChiffOS/libc/libOSMesa32.a(teximage.o)
                0x0146c6c0                _mesa_alloc_texmemory
                0x0146c6db                _mesa_free_texmemory
                0x0146c73f                _mesa_base_tex_format
                0x0146cac7                _mesa_is_color_format
                0x0146cc8d                _mesa_tex_target_to_face
                0x0146ccb3                _mesa_set_tex_image
                0x0146cd71                _mesa_new_texture_image
                0x0146cd85                _mesa_free_texture_image_data
                0x0146cdb9                _mesa_delete_texture_image
                0x0146cdfc                _mesa_is_proxy_texture
                0x0146ce4c                _mesa_select_tex_object
                0x0146d0ad                _mesa_select_tex_image
                0x0146d205                _mesa_get_tex_image
                0x0146d2a5                _mesa_get_proxy_tex_image
                0x0146d493                _mesa_max_texture_levels
                0x0146d608                _mesa_init_teximage_fields
                0x0146d882                _mesa_test_proxy_teximage
                0x0146f7cd                _mesa_GetTexImage
                0x0146fecf                _mesa_TexImage1D
                0x01470323                _mesa_TexImage2D
                0x01470814                _mesa_TexImage3D
                0x01470c6a                _mesa_TexImage3DEXT
                0x01470cbc                _mesa_TexSubImage1D
                0x01470fb0                _mesa_TexSubImage2D
                0x01471299                _mesa_TexSubImage3D
                0x01471568                _mesa_CopyTexImage1D
                0x01471834                _mesa_CopyTexImage2D
                0x01471b0f                _mesa_CopyTexSubImage1D
                0x01471daa                _mesa_CopyTexSubImage2D
                0x01472060                _mesa_CopyTexSubImage3D
                0x0147279f                _mesa_CompressedTexImage1DARB
                0x01472c1f                _mesa_CompressedTexImage2DARB
                0x014730e2                _mesa_CompressedTexImage3DARB
                0x01473566                _mesa_CompressedTexSubImage1DARB
                0x01473803                _mesa_CompressedTexSubImage2DARB
                0x01473ad4                _mesa_CompressedTexSubImage3DARB
                0x01473dd4                _mesa_GetCompressedTexImageARB
 *fill*         0x01473ff7        0x1 
 .text          0x01473ff8     0x1e11 /home/kosmick/chiffos/ChiffOS/libc/libOSMesa32.a(texobj.o)
                0x0147400e                _mesa_lookup_texture
                0x0147402d                _mesa_new_texture_object
                0x01474060                _mesa_initialize_texture_object
                0x014742e3                _mesa_delete_texture_object
                0x0147437f                _mesa_copy_texture_object
                0x014745ce                _mesa_reference_texobj
                0x01474769                _mesa_test_texobj_completeness
                0x01475053                _mesa_get_fallback_texture
                0x01475253                _mesa_GenTextures
                0x01475508                _mesa_DeleteTextures
                0x014756f6                _mesa_BindTexture
                0x014759d4                _mesa_PrioritizeTextures
                0x01475b7b                _mesa_AreTexturesResident
                0x01475d0c                _mesa_IsTexture
                0x01475d84                _mesa_lock_context_textures
                0x01475dc8                _mesa_unlock_context_textures
 *fill*         0x01475e09        0x3 
 .text          0x01475e0c     0x1e42 /home/kosmick/chiffos/ChiffOS/libc/libOSMesa32.a(texstate.o)
                0x01475e0c                _mesa_copy_texture_state
                0x014764c0                _mesa_print_texunit_state
                0x01476a30                _mesa_ActiveTextureARB
                0x01476b61                _mesa_ClientActiveTextureARB
                0x0147744b                _mesa_update_texture
                0x01477a04                _mesa_init_texture
                0x01477aad                _mesa_free_texture_data
                0x01477bcb                _mesa_update_default_objects_texture
 *fill*         0x01477c4e        0x2 
 .text          0x01477c50     0x831a /home/kosmick/chiffos/ChiffOS/libc/libOSMesa32.a(texstore.o)
                0x014783eb                _mesa_make_temp_chan_image
                0x01479483                _mesa_texstore_rgba
                0x0147985f                _mesa_texstore_z32
                0x01479a53                _mesa_texstore_z16
                0x01479c4d                _mesa_texstore_rgb565
                0x0147a1da                _mesa_texstore_rgba8888
                0x0147a7f0                _mesa_texstore_argb8888
                0x0147b19c                _mesa_texstore_rgb888
                0x0147b6c9                _mesa_texstore_bgr888
                0x0147bbf6                _mesa_texstore_rgba4444
                0x0147bec0                _mesa_texstore_argb4444
                0x0147c278                _mesa_texstore_rgba5551
                0x0147c547                _mesa_texstore_argb1555
                0x0147c933                _mesa_texstore_al88
                0x0147cd42                _mesa_texstore_rgb332
                0x0147cfbd                _mesa_texstore_a8
                0x0147d2c7                _mesa_texstore_ci8
                0x0147d48c                _mesa_texstore_ycbcr
                0x0147d5d2                _mesa_texstore_dudv8
                0x0147d8c3                _mesa_texstore_signed_rgba8888
                0x0147de57                _mesa_texstore_z24_s8
                0x0147e2ec                _mesa_texstore_s8_z24
                0x0147e638                _mesa_texstore_rgba_float32
                0x0147e842                _mesa_texstore_rgba_float16
                0x0147ea6c                _mesa_texstore_srgb8
                0x0147eb03                _mesa_texstore_srgba8
                0x0147eb93                _mesa_texstore_sargb8
                0x0147ec23                _mesa_texstore_sl8
                0x0147ecb3                _mesa_texstore_sla8
                0x0147ed43                _mesa_validate_pbo_teximage
                0x0147ee2e                _mesa_validate_pbo_compressed_teximage
                0x0147eeee                _mesa_unmap_teximage_pbo
                0x0147f030                _mesa_set_fetch_functions
                0x0147f18b                _mesa_store_teximage1d
                0x0147f392                _mesa_store_teximage2d
                0x0147f5da                _mesa_store_teximage3d
                0x0147f81a                _mesa_store_texsubimage1d
                0x0147f98c                _mesa_store_texsubimage2d
                0x0147fb3b                _mesa_store_texsubimage3d
                0x0147fce0                _mesa_store_compressed_teximage1d
                0x0147fce5                _mesa_store_compressed_teximage2d
                0x0147fdfb                _mesa_store_compressed_teximage3d
                0x0147fe00                _mesa_store_compressed_texsubimage1d
                0x0147fe05                _mesa_store_compressed_texsubimage2d
                0x0147ff65                _mesa_store_compressed_texsubimage3d
 *fill*         0x0147ff6a        0x2 
 .text          0x0147ff6c     0x229e /home/kosmick/chiffos/ChiffOS/libc/libOSMesa32.a(varray.o)
                0x01480065                _mesa_VertexPointer
                0x01480235                _mesa_NormalPointer
                0x014803c1                _mesa_ColorPointer
                0x01480600                _mesa_FogCoordPointerEXT
                0x01480771                _mesa_IndexPointer
                0x01480900                _mesa_SecondaryColorPointerEXT
                0x01480b3f                _mesa_TexCoordPointer
                0x01480d40                _mesa_EdgeFlagPointer
                0x01480e67                _mesa_PointSizePointer
                0x01480f90                _mesa_VertexAttribPointerNV
                0x014811fc                _mesa_VertexAttribPointerARB
                0x0148148b                _mesa_VertexPointerEXT
                0x014814b3                _mesa_NormalPointerEXT
                0x014814d4                _mesa_ColorPointerEXT
                0x014814fc                _mesa_IndexPointerEXT
                0x0148151d                _mesa_TexCoordPointerEXT
                0x01481545                _mesa_EdgeFlagPointerEXT
                0x0148155f                _mesa_InterleavedArrays
                0x01481b92                _mesa_LockArraysEXT
                0x01481ceb                _mesa_UnlockArraysEXT
                0x01481dec                _mesa_MultiDrawArraysEXT
                0x01481ed1                _mesa_MultiDrawElementsEXT
                0x01481fbd                _mesa_MultiModeDrawArraysIBM
                0x014820b5                _mesa_MultiModeDrawElementsIBM
                0x014821b4                _mesa_init_varray
 *fill*         0x0148220a        0x2 
 .text          0x0148220c      0x4c6 /home/kosmick/chiffos/ChiffOS/libc/libOSMesa32.a(viewport.o)
                0x0148220c                _mesa_Viewport
                0x014822a9                _mesa_set_viewport
                0x0148242c                _mesa_DepthRange
                0x01482600                _mesa_init_viewport
                0x014826ba                _mesa_free_viewport_data
 *fill*         0x014826d2        0x2 
 .text          0x014826d4     0x36b7 /home/kosmick/chiffos/ChiffOS/libc/libOSMesa32.a(vtxfmt.o)
                0x01485cd4                _mesa_init_exec_vtxfmt
                0x01485cff                _mesa_install_exec_vtxfmt
                0x01485d1e                _mesa_install_save_vtxfmt
                0x01485d3b                _mesa_restore_exec_vtxfmt
 *fill*         0x01485d8b        0x1 
 .text          0x01485d8c     0x32b5 /home/kosmick/chiffos/ChiffOS/libc/libOSMesa32.a(m_matrix.o)
                0x0148610e                _math_matrix_mul_matrix
                0x0148617e                _math_matrix_mul_floats
                0x01486245                _math_matrix_print
                0x01487982                _math_matrix_rotate
                0x01487c1e                _math_matrix_frustum
                0x01487d20                _math_matrix_ortho
                0x01487df8                _math_matrix_scale
                0x01487f45                _math_matrix_translate
                0x01488041                _math_matrix_viewport
                0x014880e9                _math_matrix_set_identity
                0x0148898b                _math_matrix_analyse
                0x01488a0f                _math_matrix_is_length_preserving
                0x01488a24                _math_matrix_has_rotation
                0x01488a3c                _math_matrix_is_general_scale
                0x01488a4f                _math_matrix_is_dirty
                0x01488a64                _math_matrix_copy
                0x01488ae3                _math_matrix_loadf
                0x01488b11                _math_matrix_ctr
                0x01488b76                _math_matrix_dtr
                0x01488bbf                _math_matrix_alloc_inv
                0x01488c13                _math_transposef
                0x01488cf4                _math_transposed
                0x01488e35                _math_transposefd
                0x01488f34                _mesa_transform_vector
 *fill*         0x01489041        0x3 
 .text          0x01489044      0x52f /home/kosmick/chiffos/ChiffOS/libc/libOSMesa32.a(vbo_context.o)
                0x01489362                _vbo_CreateContext
                0x014894b3                _vbo_InvalidateState
                0x014894df                _vbo_DestroyContext
                0x01489551                vbo_set_draw_func
 *fill*         0x01489573        0x1 
 .text          0x01489574      0x15a /home/kosmick/chiffos/ChiffOS/libc/libOSMesa32.a(vbo_exec.o)
                0x01489582                vbo_exec_init
                0x01489635                vbo_exec_destroy
                0x0148968b                vbo_exec_invalidate_state
 *fill*         0x014896ce        0x2 
 .text          0x014896d0     0x5bde /home/kosmick/chiffos/ChiffOS/libc/libOSMesa32.a(vbo_exec_api.o)
                0x014898f0                vbo_exec_vtx_wrap
                0x0148e6b3                vbo_validate_shaders
                0x0148ed0f                vbo_use_buffer_objects
                0x0148ee1b                vbo_exec_vtx_init
                0x0148ef6c                vbo_exec_vtx_destroy
                0x0148f027                vbo_exec_BeginVertices
                0x0148f09c                vbo_exec_FlushVertices_internal
                0x0148f10a                vbo_exec_FlushVertices
                0x0148f1e6                _vbo_Color4f
                0x0148f20e                _vbo_Normal3f
                0x0148f22f                _vbo_MultiTexCoord4f
                0x0148f25e                _vbo_Materialfv
                0x0148f27f                _vbo_VertexAttrib4f
 *fill*         0x0148f2ae        0x2 
 .text          0x0148f2b0      0xe32 /home/kosmick/chiffos/ChiffOS/libc/libOSMesa32.a(vbo_exec_array.o)
                0x01490032                vbo_exec_array_init
                0x0149005e                vbo_exec_array_destroy
                0x01490063                _mesa_DrawArrays
                0x01490084                _mesa_DrawElements
                0x014900ac                _mesa_DrawRangeElements
 *fill*         0x014900e2        0x2 
 .text          0x014900e4      0xf67 /home/kosmick/chiffos/ChiffOS/libc/libOSMesa32.a(vbo_exec_draw.o)
                0x01490c75                vbo_exec_vtx_map
                0x01490e6f                vbo_exec_vtx_flush
 *fill*         0x0149104b        0x1 
 .text          0x0149104c      0xb5f /home/kosmick/chiffos/ChiffOS/libc/libOSMesa32.a(vbo_exec_eval.o)
                0x014910fc                vbo_exec_eval_update
                0x01491566                vbo_exec_do_EvalCoord1f
                0x0149175b                vbo_exec_do_EvalCoord2f
 *fill*         0x01491bab        0x1 
 .text          0x01491bac      0x262 /home/kosmick/chiffos/ChiffOS/libc/libOSMesa32.a(vbo_save.o)
                0x01491c0d                vbo_save_init
                0x01491caa                vbo_save_destroy
                0x01491db3                vbo_save_fallback
 *fill*         0x01491e0e        0x2 
 .text          0x01491e10     0x66e5 /home/kosmick/chiffos/ChiffOS/libc/libOSMesa32.a(vbo_save_api.o)
                0x01497489                vbo_save_NotifyBegin
                0x01497ea7                vbo_save_SaveFlushVertices
                0x01497f33                vbo_save_NewList
                0x01497fd4                vbo_save_EndList
                0x01498105                vbo_save_BeginCallList
                0x0149813a                vbo_save_EndCallList
                0x01498404                vbo_save_api_init
 *fill*         0x014984f5        0x3 
 .text          0x014984f8      0x99b /home/kosmick/chiffos/ChiffOS/libc/libOSMesa32.a(vbo_save_draw.o)
                0x01498cbc                vbo_save_playback_vertex_list
 *fill*         0x01498e93        0x1 
 .text          0x01498e94      0x3b1 /home/kosmick/chiffos/ChiffOS/libc/libOSMesa32.a(vbo_save_loopback.o)
                0x014990d7                vbo_loopback_vertex_list
 *fill*         0x01499245        0x3 
 .text          0x01499248      0x629 /home/kosmick/chiffos/ChiffOS/libc/libOSMesa32.a(t_context.o)
                0x01499248                _tnl_CreateContext
                0x0149932a                _tnl_DestroyContext
                0x01499361                _tnl_InvalidateState
                0x01499748                _tnl_wakeup
                0x01499763                _tnl_need_projected_coords
                0x01499789                _tnl_allow_vertex_fog
                0x014997fd                _tnl_allow_pixel_fog
 *fill*         0x01499871        0x3 
 .text          0x01499874      0x394 /home/kosmick/chiffos/ChiffOS/libc/libOSMesa32.a(t_pipeline.o)
                0x01499874                _tnl_install_pipeline
                0x01499930                _tnl_destroy_pipeline
                0x01499ac1                _tnl_run_pipeline
 .text          0x01499c08     0x1034 /home/kosmick/chiffos/ChiffOS/libc/libOSMesa32.a(t_draw.o)
                0x0149aaac                _tnl_draw_prims
 .text          0x0149ac3c      0xec1 /home/kosmick/chiffos/ChiffOS/libc/libOSMesa32.a(t_vb_program.o)
                0x0149afdf                _tnl_program_string
 *fill*         0x0149bafd        0x3 
 .text          0x0149bb00     0xba9c /home/kosmick/chiffos/ChiffOS/libc/libOSMesa32.a(t_vb_render.o)
                0x014a734c                _tnl_RenderClippedPolygon
                0x014a73b0                _tnl_RenderClippedLine
 .text          0x014a759c     0x1537 /home/kosmick/chiffos/ChiffOS/libc/libOSMesa32.a(t_vb_texgen.o)
 *fill*         0x014a8ad3        0x1 
 .text          0x014a8ad4      0x256 /home/kosmick/chiffos/ChiffOS/libc/libOSMesa32.a(t_vb_texmat.o)
 *fill*         0x014a8d2a        0x2 
 .text          0x014a8d2c      0x84a /home/kosmick/chiffos/ChiffOS/libc/libOSMesa32.a(t_vb_vertex.o)
 *fill*         0x014a9576        0x2 
 .text          0x014a9578      0x605 /home/kosmick/chiffos/ChiffOS/libc/libOSMesa32.a(t_vb_fog.o)
 *fill*         0x014a9b7d        0x3 
 .text          0x014a9b80     0xa79e /home/kosmick/chiffos/ChiffOS/libc/libOSMesa32.a(t_vb_light.o)
 *fill*         0x014b431e        0x2 
 .text          0x014b4320      0x2be /home/kosmick/chiffos/ChiffOS/libc/libOSMesa32.a(t_vb_normals.o)
 *fill*         0x014b45de        0x2 
 .text          0x014b45e0      0x1b3 /home/kosmick/chiffos/ChiffOS/libc/libOSMesa32.a(t_vb_points.o)
 *fill*         0x014b4793        0x1 
 .text          0x014b4794       0x9e /home/kosmick/chiffos/ChiffOS/libc/libOSMesa32.a(t_vp_build.o)
                0x014b4794                _tnl_UpdateFixedFunctionProgram
 *fill*         0x014b4832        0x2 
 .text          0x014b4834     0x1227 /home/kosmick/chiffos/ChiffOS/libc/libOSMesa32.a(t_vertex.o)
                0x014b49ca                _tnl_register_fastpath
                0x014b4db8                _tnl_interp
                0x014b4e10                _tnl_copy_pv
                0x014b4e48                _tnl_get_attr
                0x014b4f5d                _tnl_set_attr
                0x014b5035                _tnl_get_vertex
                0x014b5060                _tnl_invalidate_vertex_state
                0x014b50df                _tnl_install_attrs
                0x014b543a                _tnl_invalidate_vertices
                0x014b5464                _tnl_notify_pipeline_output_change
                0x014b56f4                _tnl_build_vertices
                0x014b5759                _tnl_emit_vertices_to_buffer
                0x014b57c0                _tnl_emit_indexed_vertices_to_buffer
                0x014b58a4                _tnl_init_vertices
                0x014b59b3                _tnl_free_vertices
 *fill*         0x014b5a5b        0x1 
 .text          0x014b5a5c     0x3408 /home/kosmick/chiffos/ChiffOS/libc/libOSMesa32.a(t_vertex_generic.o)
                0x014b8278                _tnl_generate_hardwired_emit
                0x014b8419                _tnl_generic_emit
                0x014b8567                _tnl_generic_interp
                0x014b885a                _tnl_generic_copy_pv
                0x014b897c                _tnl_generic_interp_extras
                0x014b8d2f                _tnl_generic_copy_pv_extras
 .text          0x014b8e64     0x2477 /home/kosmick/chiffos/ChiffOS/libc/libOSMesa32.a(arbprogram.o)
                0x014b8ee5                _mesa_BindProgram
                0x014b9181                _mesa_DeletePrograms
                0x014b93cc                _mesa_GenPrograms
                0x014b94b7                _mesa_EnableVertexAttribArrayARB
                0x014b95dd                _mesa_DisableVertexAttribArrayARB
                0x014b9705                _mesa_GetVertexAttribdvARB
                0x014b97a2                _mesa_GetVertexAttribfvARB
                0x014b9a8b                _mesa_GetVertexAttribivARB
                0x014b9b85                _mesa_GetVertexAttribPointervARB
                0x014b9c35                _mesa_IsProgramARB
                0x014b9cad                _mesa_ProgramStringARB
                0x014b9e8a                _mesa_ProgramEnvParameter4dARB
                0x014b9ef4                _mesa_ProgramEnvParameter4dvARB
                0x014b9f3f                _mesa_ProgramEnvParameter4fARB
                0x014ba13a                _mesa_ProgramEnvParameter4fvARB
                0x014ba186                _mesa_ProgramEnvParameters4fvEXT
                0x014ba361                _mesa_GetProgramEnvParameterdvARB
                0x014ba3c0                _mesa_GetProgramEnvParameterfvARB
                0x014ba58b                _mesa_ProgramLocalParameter4fARB
                0x014ba737                _mesa_ProgramLocalParameter4fvARB
                0x014ba783                _mesa_ProgramLocalParameters4fvEXT
                0x014ba98a                _mesa_ProgramLocalParameter4dARB
                0x014ba9f4                _mesa_ProgramLocalParameter4dvARB
                0x014baa3f                _mesa_GetProgramLocalParameterfvARB
                0x014babb0                _mesa_GetProgramLocalParameterdvARB
                0x014bac2f                _mesa_GetProgramivARB
                0x014bb1ed                _mesa_GetProgramStringARB
 *fill*         0x014bb2db        0x1 
 .text          0x014bb2dc     0x1961 /home/kosmick/chiffos/ChiffOS/libc/libOSMesa32.a(atifragshader.o)
                0x014bb2dc                _mesa_new_ati_fragment_shader
                0x014bb30e                _mesa_delete_ati_fragment_shader
                0x014bb50d                _mesa_GenFragmentShadersATI
                0x014bb5cc                _mesa_BindFragmentShaderATI
                0x014bb752                _mesa_DeleteFragmentShaderATI
                0x014bb881                _mesa_BeginFragmentShaderATI
                0x014bba7f                _mesa_EndFragmentShaderATI
                0x014bbbe4                _mesa_PassTexCoordATI
                0x014bbf3d                _mesa_SampleMapATI
                0x014bc7c8                _mesa_ColorFragmentOp1ATI
                0x014bc845                _mesa_ColorFragmentOp2ATI
                0x014bc8bf                _mesa_ColorFragmentOp3ATI
                0x014bc936                _mesa_AlphaFragmentOp1ATI
                0x014bc9b4                _mesa_AlphaFragmentOp2ATI
                0x014bca2f                _mesa_AlphaFragmentOp3ATI
                0x014bcaa7                _mesa_SetFragmentShaderConstantATI
 *fill*         0x014bcc3d        0x3 
 .text          0x014bcc40     0x1a8e /home/kosmick/chiffos/ChiffOS/libc/libOSMesa32.a(nvprogram.o)
                0x014bcc40                _mesa_ExecuteProgramNV
                0x014bcd41                _mesa_AreProgramsResidentNV
                0x014bce9b                _mesa_RequestResidentProgramsNV
                0x014bcf99                _mesa_GetProgramParameterfvNV
                0x014bd0b8                _mesa_GetProgramParameterdvNV
                0x014bd1da                _mesa_GetProgramivNV
                0x014bd2cc                _mesa_GetProgramStringNV
                0x014bd3a1                _mesa_GetTrackMatrixivNV
                0x014bd4b4                _mesa_GetVertexAttribdvNV
                0x014bd6cc                _mesa_GetVertexAttribfvNV
                0x014bd8e1                _mesa_GetVertexAttribivNV
                0x014bdb55                _mesa_GetVertexAttribPointervNV
                0x014bdbfd                _mesa_LoadProgramNV
                0x014bdec1                _mesa_ProgramParameters4dvNV
                0x014be004                _mesa_ProgramParameters4fvNV
                0x014be148                _mesa_TrackMatrixNV
                0x014be2e0                _mesa_ProgramNamedParameter4fNV
                0x014be43f                _mesa_ProgramNamedParameter4fvNV
                0x014be492                _mesa_ProgramNamedParameter4dNV
                0x014be503                _mesa_ProgramNamedParameter4dvNV
                0x014be555                _mesa_GetProgramNamedParameterfvNV
                0x014be67d                _mesa_GetProgramNamedParameterdvNV
 *fill*         0x014be6ce        0x2 
 .text          0x014be6d0     0x3687 /home/kosmick/chiffos/ChiffOS/libc/libOSMesa32.a(nvvertparse.o)
                0x014c19af                _mesa_parse_nv_vertex_program
                0x014c1d39                _mesa_nv_vertex_input_register_name
                0x014c1d48                _mesa_nv_vertex_output_register_name
 *fill*         0x014c1d57        0x1 
 .text          0x014c1d58     0x164e /home/kosmick/chiffos/ChiffOS/libc/libOSMesa32.a(program.o)
                0x014c1db2                _mesa_init_program
                0x014c1f60                _mesa_free_program_data
                0x014c2025                _mesa_update_default_objects_program
                0x014c2167                _mesa_set_program_error
                0x014c21ad                _mesa_find_line_column
                0x014c22d6                _mesa_init_fragment_program
                0x014c230b                _mesa_init_vertex_program
                0x014c2340                _mesa_new_program
                0x014c23e7                _mesa_delete_program
                0x014c24c6                _mesa_lookup_program
                0x014c24f2                _mesa_reference_program
                0x014c25e7                _mesa_clone_program
                0x014c29d8                _mesa_insert_instructions
                0x014c2b26                _mesa_delete_instructions
                0x014c2edf                _mesa_combine_programs
                0x014c328f                _mesa_find_free_register
 *fill*         0x014c33a6        0x2 
 .text          0x014c33a8      0x49b /home/kosmick/chiffos/ChiffOS/libc/libOSMesa32.a(prog_cache.o)
                0x014c35bc                _mesa_new_program_cache
                0x014c3617                _mesa_delete_program_cache
                0x014c3649                _mesa_search_program_cache
                0x014c3718                _mesa_program_cache_insert
 *fill*         0x014c3843        0x1 
 .text          0x014c3844     0x5157 /home/kosmick/chiffos/ChiffOS/libc/libOSMesa32.a(prog_execute.o)
                0x014c4a54                _mesa_execute_program
 *fill*         0x014c899b        0x1 
 .text          0x014c899c      0x524 /home/kosmick/chiffos/ChiffOS/libc/libOSMesa32.a(prog_instruction.o)
                0x014c899c                _mesa_init_instructions
                0x014c8b59                _mesa_alloc_instructions
                0x014c8b78                _mesa_realloc_instructions
                0x014c8bb5                _mesa_copy_instructions
                0x014c8c4a                _mesa_free_instructions
                0x014c8cdd                _mesa_num_inst_src_regs
                0x014c8cf0                _mesa_num_inst_dst_regs
                0x014c8d03                _mesa_is_tex_instruction
                0x014c8d32                _mesa_check_soa_dependencies
                0x014c8ea0                _mesa_opcode_string
 .text          0x014c8ec0     0x184d /home/kosmick/chiffos/ChiffOS/libc/libOSMesa32.a(prog_noise.o)
                0x014c9053                _mesa_noise1
                0x014c915b                _mesa_noise2
                0x014c946c                _mesa_noise3
                0x014c9ba3                _mesa_noise4
 *fill*         0x014ca70d        0x3 
 .text          0x014ca710     0x12a4 /home/kosmick/chiffos/ChiffOS/libc/libOSMesa32.a(prog_parameter.o)
                0x014ca710                _mesa_new_parameter_list
                0x014ca724                _mesa_free_parameter_list
                0x014ca7b6                _mesa_add_parameter
                0x014caadf                _mesa_add_named_parameter
                0x014cab28                _mesa_add_named_constant
                0x014cac3e                _mesa_add_unnamed_constant
                0x014cadc2                _mesa_add_uniform
                0x014cae58                _mesa_use_uniform
                0x014caec8                _mesa_add_sampler
                0x014cafe7                _mesa_add_varying
                0x014cb07e                _mesa_add_attribute
                0x014cb12f                _mesa_add_state_reference
                0x014cb23a                _mesa_lookup_parameter_value
                0x014cb26c                _mesa_lookup_parameter_index
                0x014cb3a6                _mesa_lookup_parameter_constant
                0x014cb67b                _mesa_clone_parameter_list
                0x014cb7e1                _mesa_combine_parameter_lists
                0x014cb8d6                _mesa_longest_parameter_name
                0x014cb961                _mesa_num_parameters_of_type
 .text          0x014cb9b4     0x3300 /home/kosmick/chiffos/ChiffOS/libc/libOSMesa32.a(prog_statevars.o)
                0x014cdd51                _mesa_program_state_flags
                0x014ce49a                _mesa_program_state_string
                0x014ce859                _mesa_load_state_parameters
                0x014ce9d1                _mesa_load_tracked_matrices
 .text          0x014cecb4     0x15a4 /home/kosmick/chiffos/ChiffOS/libc/libOSMesa32.a(programopt.o)
                0x014cf487                _mesa_insert_mvp_code
                0x014cf4c2                _mesa_append_fog_code
                0x014cfc5d                _mesa_count_texture_indirections
                0x014cfe06                _mesa_count_texture_instructions
                0x014cfe73                _mesa_remove_output_reads
 .text          0x014d0258     0x3090 /home/kosmick/chiffos/ChiffOS/libc/libOSMesa32.a(shader_api.o)
                0x014d02e1                _mesa_clear_shader_program_data
                0x014d0367                _mesa_free_shader_program_data
                0x014d045d                _mesa_free_shader_program
                0x014d0482                _mesa_reference_shader_program
                0x014d057a                _mesa_lookup_shader_program
                0x014d0665                _mesa_new_shader
                0x014d06d6                _mesa_free_shader
                0x014d0736                _mesa_reference_shader
                0x014d082e                _mesa_lookup_shader
                0x014d09cd                _mesa_init_shader_state
                0x014d0a33                _mesa_free_shader_state
                0x014d22df                _mesa_use_program
                0x014d23cd                _mesa_update_shader_textures_used
                0x014d316a                _mesa_init_glsl_driver_functions
 .text          0x014d32e8     0x13ef /home/kosmick/chiffos/ChiffOS/libc/libOSMesa32.a(s_context.o)
                0x014d3bc8                _swrast_eject_texture_images
                0x014d3e17                _swrast_update_texture_samplers
                0x014d3fd3                _swrast_validate_derived
                0x014d415b                _swrast_Quad
                0x014d41bf                _swrast_Triangle
                0x014d41f5                _swrast_Line
                0x014d4224                _swrast_Point
                0x014d424c                _swrast_InvalidateState
                0x014d4274                _swrast_ResetLineStipple
                0x014d4291                _swrast_SetFacing
                0x014d42ad                _swrast_allow_vertex_fog
                0x014d42ed                _swrast_allow_pixel_fog
                0x014d432d                _swrast_CreateContext
                0x014d452f                _swrast_DestroyContext
                0x014d459d                _swrast_GetDeviceDriverReference
                0x014d45b6                _swrast_flush
                0x014d4620                _swrast_render_primitive
                0x014d4660                _swrast_render_start
                0x014d4699                _swrast_render_finish
                0x014d46d2                _swrast_print_vertex
 *fill*         0x014d46d7        0x1 
 .text          0x014d46d8     0x2bd5 /home/kosmick/chiffos/ChiffOS/libc/libOSMesa32.a(s_lines.o)
                0x014d6fa2                _swrast_add_spec_terms_line
                0x014d7145                _swrast_choose_line
 *fill*         0x014d72ad        0x3 
 .text          0x014d72b0     0x1dd5 /home/kosmick/chiffos/ChiffOS/libc/libOSMesa32.a(s_points.o)
                0x014d8e6e                _swrast_add_spec_terms_point
                0x014d8f5c                _swrast_choose_point
 *fill*         0x014d9085        0x3 
 .text          0x014d9088     0x3e40 /home/kosmick/chiffos/ChiffOS/libc/libOSMesa32.a(s_span.o)
                0x014d90f6                _swrast_span_default_attribs
                0x014d9f92                _swrast_span_interpolate_z
                0x014da083                _swrast_compute_lambda
                0x014daf9b                _swrast_write_index_span
                0x014dbf9e                _swrast_write_rgba_span
                0x014dc6c3                _swrast_read_rgba_span
                0x014dc8a6                _swrast_read_index_span
                0x014dcacc                _swrast_get_values
                0x014dcc32                _swrast_put_row
                0x014dcd01                _swrast_get_row
                0x014dcdc6                _swrast_get_dest_rgba
 .text          0x014dcec8     0x26d1 /home/kosmick/chiffos/ChiffOS/libc/libOSMesa32.a(s_stencil.o)
                0x014ded54                _swrast_stencil_and_ztest_span
                0x014dedc2                _swrast_read_stencil_span
                0x014dee80                _swrast_write_stencil_span
                0x014df050                _swrast_clear_stencil_buffer
 *fill*         0x014df599        0x3 
 .text          0x014df59c     0x292a /home/kosmick/chiffos/ChiffOS/libc/libOSMesa32.a(s_texcombine.o)
                0x014e15d1                _swrast_texture_span
 *fill*         0x014e1ec6        0x2 
 .text          0x014e1ec8     0x7abc /home/kosmick/chiffos/ChiffOS/libc/libOSMesa32.a(s_texfilter.o)
                0x014e9728                _swrast_choose_texture_sample_func
 .text          0x014e9984     0xbf7c /home/kosmick/chiffos/ChiffOS/libc/libOSMesa32.a(s_triangle.o)
                0x014e99b7                _swrast_culltriangle
                0x014f517e                _swrast_add_spec_terms_triangle
                0x014f5406                _swrast_choose_triangle
 .text          0x014f5900      0x9d7 /home/kosmick/chiffos/ChiffOS/libc/libOSMesa32.a(ss_context.o)
                0x014f5900                _swsetup_CreateContext
                0x014f5966                _swsetup_DestroyContext
                0x014f5f84                _swsetup_InvalidateState
                0x014f5fb9                _swsetup_Wakeup
                0x014f60ad                _swsetup_Translate
 *fill*         0x014f62d7        0x1 
 .text          0x014f62d8     0x6a1b /home/kosmick/chiffos/ChiffOS/libc/libOSMesa32.a(ss_triangle.o)
                0x014fca3d                _swsetup_trifuncs_init
                0x014fcbf5                _swsetup_choose_trifuncs
 *fill*         0x014fccf3        0x1 
 .text          0x014fccf4      0xf42 /home/kosmick/chiffos/ChiffOS/libc/libOSMesa32.a(driverfuncs.o)
                0x014fccf4                _mesa_init_driver_functions
                0x014fd48b                _mesa_init_driver_state
 *fill*         0x014fdc36        0x2 
 .text          0x014fdc38     0x4938 /home/kosmick/chiffos/ChiffOS/libc/libOSMesa32.a(slang_compile.o)
                0x014fdc65                _slang_code_unit_ctr
                0x014fdc9d                _slang_code_unit_dtr
                0x014fdccc                _slang_code_object_ctr
                0x014fdd33                _slang_code_object_dtr
                0x0150230f                _slang_compile
 .text          0x01502570      0x52a /home/kosmick/chiffos/ChiffOS/libc/libOSMesa32.a(slang_compile_function.o)
                0x01502570                slang_function_construct
                0x015025f2                slang_function_destruct
                0x0150264a                slang_function_new
                0x0150267d                _slang_function_scope_ctr
                0x0150269f                slang_function_scope_destruct
                0x015026e7                _slang_function_has_return_value
                0x015026f7                slang_function_scope_find_by_name
                0x0150276d                slang_function_scope_find
                0x0150286b                _slang_function_locate
 *fill*         0x01502a9a        0x2 
 .text          0x01502a9c      0x92d /home/kosmick/chiffos/ChiffOS/libc/libOSMesa32.a(slang_compile_operation.o)
                0x01502af3                slang_operation_construct
                0x01502b82                slang_operation_destruct
                0x01502c06                slang_replace_scope
                0x01502cce                slang_operation_copy
                0x01502f7f                slang_operation_new
                0x01503000                slang_operation_delete
                0x0150301e                slang_operation_free_children
                0x01503084                slang_operation_grow
                0x0150312a                slang_operation_insert
                0x01503279                slang_operation_insert_child
                0x015032bb                _slang_operation_swap
                0x0150330b                slang_operation_add_children
 *fill*         0x015033c9        0x3 
 .text          0x015033cc      0x43b /home/kosmick/chiffos/ChiffOS/libc/libOSMesa32.a(slang_compile_struct.o)
                0x015033cc                _slang_struct_scope_ctr
                0x015033ee                slang_struct_scope_destruct
                0x0150342f                slang_struct_scope_copy
                0x01503536                slang_struct_scope_find
                0x015035ac                slang_struct_construct
                0x0150364a                slang_struct_destruct
                0x0150368a                slang_struct_copy
                0x01503733                slang_struct_equal
 *fill*         0x01503807        0x1 
 .text          0x01503808      0x4fa /home/kosmick/chiffos/ChiffOS/libc/libOSMesa32.a(slang_compile_variable.o)
                0x01503867                _slang_variable_scope_new
                0x01503890                _slang_variable_scope_ctr
                0x015038b2                slang_variable_scope_destruct
                0x01503910                slang_variable_scope_copy
                0x01503a2d                slang_variable_scope_grow
                0x01503acf                slang_variable_construct
                0x01503b32                slang_variable_destruct
                0x01503b6b                slang_variable_copy
                0x01503c90                _slang_variable_locate
 *fill*         0x01503d02        0x2 
 .text          0x01503d04     0x1708 /home/kosmick/chiffos/ChiffOS/libc/libOSMesa32.a(slang_link.o)
                0x01504e92                _slang_link
 .text          0x0150540c      0x2b1 /home/kosmick/chiffos/ChiffOS/libc/libOSMesa32.a(slang_log.o)
                0x0150540c                slang_info_log_construct
                0x01505428                slang_info_log_destruct
                0x01505562                slang_info_log_print
                0x015055ac                slang_info_log_error
                0x01505618                slang_info_log_warning
                0x0150567d                slang_info_log_memory
 *fill*         0x015056bd        0x3 
 .text          0x015056c0      0x2b6 /home/kosmick/chiffos/ChiffOS/libc/libOSMesa32.a(slang_mem.o)
                0x015056c0                _slang_new_mempool
                0x0150571f                _slang_delete_mempool
                0x01505767                _slang_alloc
                0x01505893                _slang_realloc
                0x01505907                _slang_strdup
                0x01505954                _slang_free
 *fill*         0x01505976        0x2 
 .text          0x01505978     0x3201 /home/kosmick/chiffos/ChiffOS/libc/libOSMesa32.a(slang_preprocess.o)
                0x015059e0                _slang_preprocess_version
                0x01508a8c                _slang_preprocess_directives
 *fill*         0x01508b79        0x3 
 .text          0x01508b7c     0x1131 /home/kosmick/chiffos/ChiffOS/libc/libOSMesa32.a(slang_simplify.o)
                0x01508b7c                _slang_lookup_constant
                0x01508c02                _slang_simplify
                0x01509725                _slang_cast_func_params
                0x01509975                _slang_adapt_call
 *fill*         0x01509cad        0x3 
 .text          0x01509cb0      0x767 /home/kosmick/chiffos/ChiffOS/libc/libOSMesa32.a(slang_storage.o)
                0x01509cb0                slang_storage_array_construct
                0x01509cd4                slang_storage_array_destruct
                0x01509d02                slang_storage_aggregate_construct
                0x01509d1c                slang_storage_aggregate_destruct
                0x01509f53                _slang_aggregate_variable
                0x0150a37b                _slang_sizeof_type
                0x0150a39f                _slang_sizeof_aggregate
 *fill*         0x0150a417        0x1 
 .text          0x0150a418     0x1629 /home/kosmick/chiffos/ChiffOS/libc/libOSMesa32.a(slang_typeinfo.o)
                0x0150a418                _slang_is_swizzle
                0x0150a60b                slang_type_specifier_type_from_string
                0x0150a649                slang_type_specifier_type_to_string
                0x0150a679                slang_fully_specified_type_construct
                0x0150a69d                slang_fully_specified_type_destruct
                0x0150a6b3                slang_fully_specified_type_copy
                0x0150a759                slang_type_specifier_ctr
                0x0150a77b                slang_type_specifier_dtr
                0x0150a7cf                slang_type_specifier_new
                0x0150a809                slang_type_specifier_copy
                0x0150a92c                slang_type_specifier_equal
                0x0150a990                slang_type_specifier_compatible
                0x0150aa0c                slang_typeinfo_construct
                0x0150aa41                slang_typeinfo_destruct
                0x0150abb1                _slang_typeof_operation
                0x0150b7f7                _slang_type_is_matrix
                0x0150b80d                _slang_type_is_vector
                0x0150b82d                _slang_type_is_float_vec_mat
                0x0150b843                _slang_type_base
                0x0150b8b6                _slang_type_dim
                0x0150b91b                _slang_gltype_from_specifier
 *fill*         0x0150ba41        0x3 
 .text          0x0150ba44      0xbd9 /home/kosmick/chiffos/ChiffOS/libc/libOSMesa32.a(slang_vartable.o)
                0x0150ba44                _slang_new_var_table
                0x0150ba6d                _slang_delete_var_table
                0x0150baa0                _slang_push_var_table
                0x0150bb67                _slang_pop_var_table
                0x0150bdf7                _slang_add_variable
                0x0150bee1                _slang_find_variable
                0x0150c144                _slang_alloc_var
                0x0150c245                _slang_alloc_temp
                0x0150c359                _slang_free_temp
                0x0150c566                _slang_is_temp
 *fill*         0x0150c61d        0x3 
 .text          0x0150c620      0x460 /home/kosmick/chiffos/ChiffOS/libc/libOSMesa32.a(slang_utility.o)
                0x0150c620                slang_string_concat
                0x0150c647                slang_string_init
                0x0150c670                slang_string_free
                0x0150c68e                slang_string_reset
                0x0150c745                slang_string_push
                0x0150c7c2                slang_string_pushc
                0x0150c80b                slang_string_pushs
                0x0150c865                slang_string_pushi
                0x0150c8a8                slang_string_cstr
                0x0150c8df                slang_atom_pool_construct
                0x0150c909                slang_atom_pool_destruct
                0x0150c961                slang_atom_pool_atom
                0x0150ca78                slang_atom_pool_id
 .text          0x0150ca80     0xbb6b /home/kosmick/chiffos/ChiffOS/libc/libOSMesa32.a(dispatch.o)
                0x0150ca80                glNewList
                0x0150ca9e                glEndList
                0x0150cab0                glCallList
                0x0150cac8                glCallLists
                0x0150caee                glDeleteLists
                0x0150cb0d                glGenLists
                0x0150cb25                glListBase
                0x0150cb3d                glBegin
                0x0150cb55                glBitmap
                0x0150cb97                glColor3b
                0x0150cbd7                glColor3bv
                0x0150cbef                glColor3d
                0x0150cc4e                glColor3dv
                0x0150cc66                glColor3f
                0x0150cc8c                glColor3fv
                0x0150cca4                glColor3i
                0x0150ccca                glColor3iv
                0x0150cce2                glColor3s
                0x0150cd25                glColor3sv
                0x0150cd3d                glColor3ub
                0x0150cd87                glColor3ubv
                0x0150cd9f                glColor3ui
                0x0150cdc5                glColor3uiv
                0x0150cddd                glColor3us
                0x0150ce2c                glColor3usv
                0x0150ce44                glColor4b
                0x0150ce94                glColor4bv
                0x0150ceac                glColor4d
                0x0150cf25                glColor4dv
                0x0150cf3d                glColor4f
                0x0150cf6a                glColor4fv
                0x0150cf82                glColor4i
                0x0150cfaf                glColor4iv
                0x0150cfca                glColor4s
                0x0150d021                glColor4sv
                0x0150d03c                glColor4ub
                0x0150d0a0                glColor4ubv
                0x0150d0bb                glColor4ui
                0x0150d0eb                glColor4uiv
                0x0150d106                glColor4us
                0x0150d16d                glColor4usv
                0x0150d188                glEdgeFlag
                0x0150d1ae                glEdgeFlagv
                0x0150d1c9                glEnd
                0x0150d1de                glIndexd
                0x0150d20c                glIndexdv
                0x0150d227                glIndexf
                0x0150d242                glIndexfv
                0x0150d25d                glIndexi
                0x0150d278                glIndexiv
                0x0150d293                glIndexs
                0x0150d2b6                glIndexsv
                0x0150d2d1                glNormal3b
                0x0150d314                glNormal3bv
                0x0150d32f                glNormal3d
                0x0150d391                glNormal3dv
                0x0150d3ac                glNormal3f
                0x0150d3d5                glNormal3fv
                0x0150d3f0                glNormal3i
                0x0150d419                glNormal3iv
                0x0150d434                glNormal3s
                0x0150d47a                glNormal3sv
                0x0150d495                glRasterPos2d
                0x0150d4dd                glRasterPos2dv
                0x0150d4f8                glRasterPos2f
                0x0150d51a                glRasterPos2fv
                0x0150d535                glRasterPos2i
                0x0150d557                glRasterPos2iv
                0x0150d572                glRasterPos2s
                0x0150d5a4                glRasterPos2sv
                0x0150d5bf                glRasterPos3d
                0x0150d621                glRasterPos3dv
                0x0150d63c                glRasterPos3f
                0x0150d665                glRasterPos3fv
                0x0150d680                glRasterPos3i
                0x0150d6a9                glRasterPos3iv
                0x0150d6c4                glRasterPos3s
                0x0150d70a                glRasterPos3sv
                0x0150d725                glRasterPos4d
                0x0150d7a1                glRasterPos4dv
                0x0150d7bc                glRasterPos4f
                0x0150d7ec                glRasterPos4fv
                0x0150d807                glRasterPos4i
                0x0150d837                glRasterPos4iv
                0x0150d852                glRasterPos4s
                0x0150d8a9                glRasterPos4sv
                0x0150d8c4                glRectd
                0x0150d940                glRectdv
                0x0150d962                glRectf
                0x0150d992                glRectfv
                0x0150d9b4                glRecti
                0x0150d9e4                glRectiv
                0x0150da06                glRects
                0x0150da5d                glRectsv
                0x0150da7f                glTexCoord1d
                0x0150daad                glTexCoord1dv
                0x0150dac8                glTexCoord1f
                0x0150dae3                glTexCoord1fv
                0x0150dafe                glTexCoord1i
                0x0150db19                glTexCoord1iv
                0x0150db34                glTexCoord1s
                0x0150db57                glTexCoord1sv
                0x0150db72                glTexCoord2d
                0x0150dbba                glTexCoord2dv
                0x0150dbd5                glTexCoord2f
                0x0150dbf7                glTexCoord2fv
                0x0150dc12                glTexCoord2i
                0x0150dc34                glTexCoord2iv
                0x0150dc4f                glTexCoord2s
                0x0150dc81                glTexCoord2sv
                0x0150dc9c                glTexCoord3d
                0x0150dcfe                glTexCoord3dv
                0x0150dd19                glTexCoord3f
                0x0150dd42                glTexCoord3fv
                0x0150dd5d                glTexCoord3i
                0x0150dd86                glTexCoord3iv
                0x0150dda1                glTexCoord3s
                0x0150dde7                glTexCoord3sv
                0x0150de02                glTexCoord4d
                0x0150de7e                glTexCoord4dv
                0x0150de99                glTexCoord4f
                0x0150dec9                glTexCoord4fv
                0x0150dee4                glTexCoord4i
                0x0150df14                glTexCoord4iv
                0x0150df2f                glTexCoord4s
                0x0150df86                glTexCoord4sv
                0x0150dfa1                glVertex2d
                0x0150dfe9                glVertex2dv
                0x0150e004                glVertex2f
                0x0150e026                glVertex2fv
                0x0150e041                glVertex2i
                0x0150e063                glVertex2iv
                0x0150e07e                glVertex2s
                0x0150e0b0                glVertex2sv
                0x0150e0cb                glVertex3d
                0x0150e12d                glVertex3dv
                0x0150e148                glVertex3f
                0x0150e171                glVertex3fv
                0x0150e18c                glVertex3i
                0x0150e1b5                glVertex3iv
                0x0150e1d0                glVertex3s
                0x0150e216                glVertex3sv
                0x0150e231                glVertex4d
                0x0150e2ad                glVertex4dv
                0x0150e2c8                glVertex4f
                0x0150e2f8                glVertex4fv
                0x0150e313                glVertex4i
                0x0150e343                glVertex4iv
                0x0150e35e                glVertex4s
                0x0150e3b5                glVertex4sv
                0x0150e3d0                glClipPlane
                0x0150e3f2                glColorMaterial
                0x0150e414                glCullFace
                0x0150e42f                glFogf
                0x0150e451                glFogfv
                0x0150e473                glFogi
                0x0150e495                glFogiv
                0x0150e4b7                glFrontFace
                0x0150e4d2                glHint
                0x0150e4f4                glLightf
                0x0150e51d                glLightfv
                0x0150e546                glLighti
                0x0150e56f                glLightiv
                0x0150e598                glLightModelf
                0x0150e5ba                glLightModelfv
                0x0150e5dc                glLightModeli
                0x0150e5fe                glLightModeliv
                0x0150e620                glLineStipple
                0x0150e64e                glLineWidth
                0x0150e669                glMaterialf
                0x0150e692                glMaterialfv
                0x0150e6bb                glMateriali
                0x0150e6e4                glMaterialiv
                0x0150e70d                glPointSize
                0x0150e728                glPolygonMode
                0x0150e74a                glPolygonStipple
                0x0150e765                glScissor
                0x0150e795                glShadeModel
                0x0150e7b0                glTexParameterf
                0x0150e7d9                glTexParameterfv
                0x0150e802                glTexParameteri
                0x0150e82b                glTexParameteriv
                0x0150e854                glTexImage1D
                0x0150e8a0                glTexImage2D
                0x0150e8f3                glTexEnvf
                0x0150e91c                glTexEnvfv
                0x0150e945                glTexEnvi
                0x0150e96e                glTexEnviv
                0x0150e997                glTexGend
                0x0150e9d3                glTexGendv
                0x0150e9fc                glTexGenf
                0x0150ea25                glTexGenfv
                0x0150ea4e                glTexGeni
                0x0150ea77                glTexGeniv
                0x0150eaa0                glFeedbackBuffer
                0x0150eac9                glSelectBuffer
                0x0150eaeb                glRenderMode
                0x0150eb06                glInitNames
                0x0150eb1b                glLoadName
                0x0150eb36                glPassThrough
                0x0150eb51                glPopName
                0x0150eb66                glPushName
                0x0150eb81                glDrawBuffer
                0x0150eb9c                glClear
                0x0150ebb7                glClearAccum
                0x0150ebe7                glClearIndex
                0x0150ec02                glClearColor
                0x0150ec32                glClearStencil
                0x0150ec4d                glClearDepth
                0x0150ec7b                glStencilMask
                0x0150ec96                glColorMask
                0x0150ecfa                glDepthMask
                0x0150ed20                glIndexMask
                0x0150ed3b                glAccum
                0x0150ed5d                glDisable
                0x0150ed78                glEnable
                0x0150ed93                glFinish
                0x0150eda8                glFlush
                0x0150edbd                glPopAttrib
                0x0150edd2                glPushAttrib
                0x0150eded                glMap1d
                0x0150ee51                glMap1f
                0x0150ee8f                glMap2d
                0x0150ef35                glMap2f
                0x0150ef8f                glMapGrid1d
                0x0150efde                glMapGrid1f
                0x0150f007                glMapGrid2d
                0x0150f091                glMapGrid2f
                0x0150f0cf                glEvalCoord1d
                0x0150f0fd                glEvalCoord1dv
                0x0150f118                glEvalCoord1f
                0x0150f133                glEvalCoord1fv
                0x0150f14e                glEvalCoord2d
                0x0150f196                glEvalCoord2dv
                0x0150f1b1                glEvalCoord2f
                0x0150f1d3                glEvalCoord2fv
                0x0150f1ee                glEvalMesh1
                0x0150f217                glEvalPoint1
                0x0150f232                glEvalMesh2
                0x0150f269                glEvalPoint2
                0x0150f28b                glAlphaFunc
                0x0150f2ad                glBlendFunc
                0x0150f2cf                glLogicOp
                0x0150f2ea                glStencilFunc
                0x0150f313                glStencilOp
                0x0150f33c                glDepthFunc
                0x0150f357                glPixelZoom
                0x0150f379                glPixelTransferf
                0x0150f39b                glPixelTransferi
                0x0150f3bd                glPixelStoref
                0x0150f3df                glPixelStorei
                0x0150f401                glPixelMapfv
                0x0150f42a                glPixelMapuiv
                0x0150f453                glPixelMapusv
                0x0150f47c                glReadBuffer
                0x0150f497                glCopyPixels
                0x0150f4ce                glReadPixels
                0x0150f513                glDrawPixels
                0x0150f54a                glGetBooleanv
                0x0150f56c                glGetClipPlane
                0x0150f58e                glGetDoublev
                0x0150f5b0                glGetError
                0x0150f5c5                glGetFloatv
                0x0150f5e7                glGetIntegerv
                0x0150f609                glGetLightfv
                0x0150f632                glGetLightiv
                0x0150f65b                glGetMapdv
                0x0150f684                glGetMapfv
                0x0150f6ad                glGetMapiv
                0x0150f6d6                glGetMaterialfv
                0x0150f6ff                glGetMaterialiv
                0x0150f728                glGetPixelMapfv
                0x0150f74a                glGetPixelMapuiv
                0x0150f76c                glGetPixelMapusv
                0x0150f78e                glGetPolygonStipple
                0x0150f7a9                glGetString
                0x0150f7c4                glGetTexEnvfv
                0x0150f7ed                glGetTexEnviv
                0x0150f816                glGetTexGendv
                0x0150f83f                glGetTexGenfv
                0x0150f868                glGetTexGeniv
                0x0150f891                glGetTexImage
                0x0150f8c8                glGetTexParameterfv
                0x0150f8f1                glGetTexParameteriv
                0x0150f91a                glGetTexLevelParameterfv
                0x0150f94a                glGetTexLevelParameteriv
                0x0150f97a                glIsEnabled
                0x0150f995                glIsList
                0x0150f9b0                glDepthRange
                0x0150f9f8                glFrustum
                0x0150faa8                glLoadIdentity
                0x0150fabd                glLoadMatrixf
                0x0150fad8                glLoadMatrixd
                0x0150faf3                glMatrixMode
                0x0150fb0e                glMultMatrixf
                0x0150fb29                glMultMatrixd
                0x0150fb44                glOrtho
                0x0150fbf4                glPopMatrix
                0x0150fc09                glPushMatrix
                0x0150fc1e                glRotated
                0x0150fc9a                glRotatef
                0x0150fcca                glScaled
                0x0150fd2c                glScalef
                0x0150fd55                glTranslated
                0x0150fdb7                glTranslatef
                0x0150fde0                glViewport
                0x0150fe10                glArrayElement
                0x0150fe2b                glArrayElementEXT
                0x0150fe46                glBindTexture
                0x0150fe68                glBindTextureEXT
                0x0150fe8a                glColorPointer
                0x0150feba                glDisableClientState
                0x0150fed5                glDrawArrays
                0x0150fefe                glDrawArraysEXT
                0x0150ff27                glDrawElements
                0x0150ff57                glEdgeFlagPointer
                0x0150ff79                glEnableClientState
                0x0150ff94                glIndexPointer
                0x0150ffbd                glIndexub
                0x0150ffe3                glIndexubv
                0x0150fffe                glInterleavedArrays
                0x01510027                glNormalPointer
                0x01510050                glPolygonOffset
                0x01510072                glTexCoordPointer
                0x015100a2                glVertexPointer
                0x015100d2                glAreTexturesResident
                0x015100fb                glAreTexturesResidentEXT
                0x01510124                glCopyTexImage1D
                0x01510169                glCopyTexImage1DEXT
                0x015101ae                glCopyTexImage2D
                0x015101fa                glCopyTexImage2DEXT
                0x01510246                glCopyTexSubImage1D
                0x01510284                glCopyTexSubImage1DEXT
                0x015102c2                glCopyTexSubImage2D
                0x0151030e                glCopyTexSubImage2DEXT
                0x0151035a                glDeleteTextures
                0x0151037c                glDeleteTexturesEXT
                0x0151039e                glGenTextures
                0x015103c0                glGenTexturesEXT
                0x015103e2                glGetPointerv
                0x01510404                glGetPointervEXT
                0x01510426                glIsTexture
                0x01510441                glIsTextureEXT
                0x0151045c                glPrioritizeTextures
                0x01510485                glPrioritizeTexturesEXT
                0x015104ae                glTexSubImage1D
                0x015104f3                glTexSubImage1DEXT
                0x01510538                glTexSubImage2D
                0x0151058b                glTexSubImage2DEXT
                0x015105de                glPopClientAttrib
                0x015105f3                glPushClientAttrib
                0x0151060e                glBlendColor
                0x0151063e                glBlendColorEXT
                0x0151066e                glBlendEquation
                0x01510689                glBlendEquationEXT
                0x015106a4                glDrawRangeElements
                0x015106e2                glDrawRangeElementsEXT
                0x01510720                glColorTable
                0x0151075e                gl_dispatch_stub_339
                0x0151079c                glColorTableEXT
                0x015107da                glColorTableParameterfv
                0x01510803                gl_dispatch_stub_340
                0x0151082c                glColorTableParameteriv
                0x01510855                gl_dispatch_stub_341
                0x0151087e                glCopyColorTable
                0x015108b5                gl_dispatch_stub_342
                0x015108ec                glGetColorTable
                0x0151091c                gl_dispatch_stub_343
                0x0151094c                glGetColorTableEXT
                0x0151097c                glGetColorTableParameterfv
                0x015109a5                gl_dispatch_stub_344
                0x015109ce                glGetColorTableParameterfvEXT
                0x015109f7                glGetColorTableParameteriv
                0x01510a20                gl_dispatch_stub_345
                0x01510a49                glGetColorTableParameterivEXT
                0x01510a72                glColorSubTable
                0x01510ab0                gl_dispatch_stub_346
                0x01510aee                glCopyColorSubTable
                0x01510b25                gl_dispatch_stub_347
                0x01510b5c                glConvolutionFilter1D
                0x01510b9a                gl_dispatch_stub_348
                0x01510bd8                glConvolutionFilter2D
                0x01510c1d                gl_dispatch_stub_349
                0x01510c62                glConvolutionParameterf
                0x01510c8b                gl_dispatch_stub_350
                0x01510cb4                glConvolutionParameterfv
                0x01510cdd                gl_dispatch_stub_351
                0x01510d06                glConvolutionParameteri
                0x01510d2f                gl_dispatch_stub_352
                0x01510d58                glConvolutionParameteriv
                0x01510d81                gl_dispatch_stub_353
                0x01510daa                glCopyConvolutionFilter1D
                0x01510de1                gl_dispatch_stub_354
                0x01510e18                glCopyConvolutionFilter2D
                0x01510e56                gl_dispatch_stub_355
                0x01510e94                glGetConvolutionFilter
                0x01510ec4                gl_dispatch_stub_356
                0x01510ef4                glGetConvolutionParameterfv
                0x01510f1d                gl_dispatch_stub_357
                0x01510f46                glGetConvolutionParameteriv
                0x01510f6f                gl_dispatch_stub_358
                0x01510f98                glGetSeparableFilter
                0x01510fd6                gl_dispatch_stub_359
                0x01511014                glSeparableFilter2D
                0x01511060                gl_dispatch_stub_360
                0x015110ac                glGetHistogram
                0x015110ee                gl_dispatch_stub_361
                0x01511130                glGetHistogramParameterfv
                0x01511159                gl_dispatch_stub_362
                0x01511182                glGetHistogramParameteriv
                0x015111ab                gl_dispatch_stub_363
                0x015111d4                glGetMinmax
                0x01511216                gl_dispatch_stub_364
                0x01511258                glGetMinmaxParameterfv
                0x01511281                gl_dispatch_stub_365
                0x015112aa                glGetMinmaxParameteriv
                0x015112d3                gl_dispatch_stub_366
                0x015112fc                glHistogram
                0x01511337                gl_dispatch_stub_367
                0x01511372                glMinmax
                0x015113a6                gl_dispatch_stub_368
                0x015113da                glResetHistogram
                0x015113f5                gl_dispatch_stub_369
                0x01511410                glResetMinmax
                0x0151142b                gl_dispatch_stub_370
                0x01511446                glTexImage3D
                0x015114a0                glTexImage3DEXT
                0x015114fa                glTexSubImage3D
                0x0151155b                glTexSubImage3DEXT
                0x015115bc                glCopyTexSubImage3D
                0x0151160f                glCopyTexSubImage3DEXT
                0x01511662                glActiveTexture
                0x0151167d                glActiveTextureARB
                0x01511698                glClientActiveTexture
                0x015116b3                glClientActiveTextureARB
                0x015116ce                glMultiTexCoord1d
                0x01511703                glMultiTexCoord1dARB
                0x01511738                glMultiTexCoord1dv
                0x0151175a                glMultiTexCoord1dvARB
                0x0151177c                glMultiTexCoord1f
                0x0151179e                glMultiTexCoord1fARB
                0x015117c0                glMultiTexCoord1fv
                0x015117e2                glMultiTexCoord1fvARB
                0x01511804                glMultiTexCoord1i
                0x01511826                glMultiTexCoord1iARB
                0x01511848                glMultiTexCoord1iv
                0x0151186a                glMultiTexCoord1ivARB
                0x0151188c                glMultiTexCoord1s
                0x015118b6                glMultiTexCoord1sARB
                0x015118e0                glMultiTexCoord1sv
                0x01511902                glMultiTexCoord1svARB
                0x01511924                glMultiTexCoord2d
                0x01511973                glMultiTexCoord2dARB
                0x015119c2                glMultiTexCoord2dv
                0x015119e4                glMultiTexCoord2dvARB
                0x01511a06                glMultiTexCoord2f
                0x01511a2f                glMultiTexCoord2fARB
                0x01511a58                glMultiTexCoord2fv
                0x01511a7a                glMultiTexCoord2fvARB
                0x01511a9c                glMultiTexCoord2i
                0x01511ac5                glMultiTexCoord2iARB
                0x01511aee                glMultiTexCoord2iv
                0x01511b10                glMultiTexCoord2ivARB
                0x01511b32                glMultiTexCoord2s
                0x01511b6b                glMultiTexCoord2sARB
                0x01511ba4                glMultiTexCoord2sv
                0x01511bc6                glMultiTexCoord2svARB
                0x01511be8                glMultiTexCoord3d
                0x01511c51                glMultiTexCoord3dARB
                0x01511cba                glMultiTexCoord3dv
                0x01511cdc                glMultiTexCoord3dvARB
                0x01511cfe                glMultiTexCoord3f
                0x01511d2e                glMultiTexCoord3fARB
                0x01511d5e                glMultiTexCoord3fv
                0x01511d80                glMultiTexCoord3fvARB
                0x01511da2                glMultiTexCoord3i
                0x01511dd2                glMultiTexCoord3iARB
                0x01511e02                glMultiTexCoord3iv
                0x01511e24                glMultiTexCoord3ivARB
                0x01511e46                glMultiTexCoord3s
                0x01511e93                glMultiTexCoord3sARB
                0x01511ee0                glMultiTexCoord3sv
                0x01511f02                glMultiTexCoord3svARB
                0x01511f24                glMultiTexCoord4d
                0x01511fa7                glMultiTexCoord4dARB
                0x0151202a                glMultiTexCoord4dv
                0x0151204c                glMultiTexCoord4dvARB
                0x0151206e                glMultiTexCoord4f
                0x015120a5                glMultiTexCoord4fARB
                0x015120dc                glMultiTexCoord4fv
                0x015120fe                glMultiTexCoord4fvARB
                0x01512120                glMultiTexCoord4i
                0x01512157                glMultiTexCoord4iARB
                0x0151218e                glMultiTexCoord4iv
                0x015121b0                glMultiTexCoord4ivARB
                0x015121d2                glMultiTexCoord4s
                0x01512230                glMultiTexCoord4sARB
                0x0151228e                glMultiTexCoord4sv
                0x015122b0                glMultiTexCoord4svARB
                0x015122d2                glAttachShader
                0x015122f4                glCreateProgram
                0x01512309                glCreateShader
                0x01512324                glDeleteProgram
                0x0151233f                glDeleteShader
                0x0151235a                glDetachShader
                0x0151237c                glGetAttachedShaders
                0x015123ac                glGetProgramInfoLog
                0x015123dc                glGetProgramiv
                0x01512405                glGetShaderInfoLog
                0x01512435                glGetShaderiv
                0x0151245e                glIsProgram
                0x01512479                glIsShader
                0x01512494                glStencilFuncSeparate
                0x015124c4                glStencilMaskSeparate
                0x015124e6                glStencilOpSeparate
                0x01512516                gl_dispatch_stub_423
                0x01512546                glUniformMatrix2x3fv
                0x01512581                glUniformMatrix2x4fv
                0x015125bc                glUniformMatrix3x2fv
                0x015125f7                glUniformMatrix3x4fv
                0x01512632                glUniformMatrix4x2fv
                0x0151266d                glUniformMatrix4x3fv
                0x015126a8                glLoadTransposeMatrixd
                0x015126c3                glLoadTransposeMatrixdARB
                0x015126de                glLoadTransposeMatrixf
                0x015126f9                glLoadTransposeMatrixfARB
                0x01512714                glMultTransposeMatrixd
                0x0151272f                glMultTransposeMatrixdARB
                0x0151274a                glMultTransposeMatrixf
                0x01512765                glMultTransposeMatrixfARB
                0x01512780                glSampleCoverage
                0x015127ad                glSampleCoverageARB
                0x015127da                glCompressedTexImage1D
                0x0151281f                glCompressedTexImage1DARB
                0x01512864                glCompressedTexImage2D
                0x015128b0                glCompressedTexImage2DARB
                0x015128fc                glCompressedTexImage3D
                0x0151294f                glCompressedTexImage3DARB
                0x015129a2                glCompressedTexSubImage1D
                0x015129e7                glCompressedTexSubImage1DARB
                0x01512a2c                glCompressedTexSubImage2D
                0x01512a7f                glCompressedTexSubImage2DARB
                0x01512ad2                glCompressedTexSubImage3D
                0x01512b33                glCompressedTexSubImage3DARB
                0x01512b94                glGetCompressedTexImage
                0x01512bbd                glGetCompressedTexImageARB
                0x01512be6                glDisableVertexAttribArray
                0x01512c01                glDisableVertexAttribArrayARB
                0x01512c1c                glEnableVertexAttribArray
                0x01512c37                glEnableVertexAttribArrayARB
                0x01512c52                glGetProgramEnvParameterdvARB
                0x01512c7b                glGetProgramEnvParameterfvARB
                0x01512ca4                glGetProgramLocalParameterdvARB
                0x01512ccd                glGetProgramLocalParameterfvARB
                0x01512cf6                glGetProgramStringARB
                0x01512d1f                glGetProgramivARB
                0x01512d48                glGetVertexAttribdv
                0x01512d71                glGetVertexAttribdvARB
                0x01512d9a                glGetVertexAttribfv
                0x01512dc3                glGetVertexAttribfvARB
                0x01512dec                glGetVertexAttribiv
                0x01512e15                glGetVertexAttribivARB
                0x01512e3e                glProgramEnvParameter4dARB
                0x01512ec8                glProgramParameter4dNV
                0x01512f52                glProgramEnvParameter4dvARB
                0x01512f7b                glProgramParameter4dvNV
                0x01512fa4                glProgramEnvParameter4fARB
                0x01512fe2                glProgramParameter4fNV
                0x01513020                glProgramEnvParameter4fvARB
                0x01513049                glProgramParameter4fvNV
                0x01513072                glProgramLocalParameter4dARB
                0x015130fc                glProgramLocalParameter4dvARB
                0x01513125                glProgramLocalParameter4fARB
                0x01513163                glProgramLocalParameter4fvARB
                0x0151318c                glProgramStringARB
                0x015131bc                glVertexAttrib1d
                0x015131f1                glVertexAttrib1dARB
                0x01513226                glVertexAttrib1dv
                0x01513248                glVertexAttrib1dvARB
                0x0151326a                glVertexAttrib1f
                0x0151328c                glVertexAttrib1fARB
                0x015132ae                glVertexAttrib1fv
                0x015132d0                glVertexAttrib1fvARB
                0x015132f2                glVertexAttrib1s
                0x0151331c                glVertexAttrib1sARB
                0x01513346                glVertexAttrib1sv
                0x01513368                glVertexAttrib1svARB
                0x0151338a                glVertexAttrib2d
                0x015133d9                glVertexAttrib2dARB
                0x01513428                glVertexAttrib2dv
                0x0151344a                glVertexAttrib2dvARB
                0x0151346c                glVertexAttrib2f
                0x01513495                glVertexAttrib2fARB
                0x015134be                glVertexAttrib2fv
                0x015134e0                glVertexAttrib2fvARB
                0x01513502                glVertexAttrib2s
                0x0151353b                glVertexAttrib2sARB
                0x01513574                glVertexAttrib2sv
                0x01513596                glVertexAttrib2svARB
                0x015135b8                glVertexAttrib3d
                0x01513621                glVertexAttrib3dARB
                0x0151368a                glVertexAttrib3dv
                0x015136ac                glVertexAttrib3dvARB
                0x015136ce                glVertexAttrib3f
                0x015136fe                glVertexAttrib3fARB
                0x0151372e                glVertexAttrib3fv
                0x01513750                glVertexAttrib3fvARB
                0x01513772                glVertexAttrib3s
                0x015137bf                glVertexAttrib3sARB
                0x0151380c                glVertexAttrib3sv
                0x0151382e                glVertexAttrib3svARB
                0x01513850                glVertexAttrib4Nbv
                0x01513872                glVertexAttrib4NbvARB
                0x01513894                glVertexAttrib4Niv
                0x015138b6                glVertexAttrib4NivARB
                0x015138d8                glVertexAttrib4Nsv
                0x015138fa                glVertexAttrib4NsvARB
                0x0151391c                glVertexAttrib4Nub
                0x01513987                glVertexAttrib4NubARB
                0x015139f2                glVertexAttrib4Nubv
                0x01513a14                glVertexAttrib4NubvARB
                0x01513a36                glVertexAttrib4Nuiv
                0x01513a58                glVertexAttrib4NuivARB
                0x01513a7a                glVertexAttrib4Nusv
                0x01513a9c                glVertexAttrib4NusvARB
                0x01513abe                glVertexAttrib4bv
                0x01513ae0                glVertexAttrib4bvARB
                0x01513b02                glVertexAttrib4d
                0x01513b85                glVertexAttrib4dARB
                0x01513c08                glVertexAttrib4dv
                0x01513c2a                glVertexAttrib4dvARB
                0x01513c4c                glVertexAttrib4f
                0x01513c83                glVertexAttrib4fARB
                0x01513cba                glVertexAttrib4fv
                0x01513cdc                glVertexAttrib4fvARB
                0x01513cfe                glVertexAttrib4iv
                0x01513d20                glVertexAttrib4ivARB
                0x01513d42                glVertexAttrib4s
                0x01513da0                glVertexAttrib4sARB
                0x01513dfe                glVertexAttrib4sv
                0x01513e20                glVertexAttrib4svARB
                0x01513e42                glVertexAttrib4ubv
                0x01513e64                glVertexAttrib4ubvARB
                0x01513e86                glVertexAttrib4uiv
                0x01513ea8                glVertexAttrib4uivARB
                0x01513eca                glVertexAttrib4usv
                0x01513eec                glVertexAttrib4usvARB
                0x01513f0e                glVertexAttribPointer
                0x01513f57                glVertexAttribPointerARB
                0x01513fa0                glBindBuffer
                0x01513fc2                glBindBufferARB
                0x01513fe4                glBufferData
                0x01514014                glBufferDataARB
                0x01514044                glBufferSubData
                0x01514074                glBufferSubDataARB
                0x015140a4                glDeleteBuffers
                0x015140c6                glDeleteBuffersARB
                0x015140e8                glGenBuffers
                0x0151410a                glGenBuffersARB
                0x0151412c                glGetBufferParameteriv
                0x01514155                glGetBufferParameterivARB
                0x0151417e                glGetBufferPointerv
                0x015141a7                glGetBufferPointervARB
                0x015141d0                glGetBufferSubData
                0x01514200                glGetBufferSubDataARB
                0x01514230                glIsBuffer
                0x0151424b                glIsBufferARB
                0x01514266                glMapBuffer
                0x01514288                glMapBufferARB
                0x015142aa                glUnmapBuffer
                0x015142c5                glUnmapBufferARB
                0x015142e0                glBeginQuery
                0x01514302                glBeginQueryARB
                0x01514324                glDeleteQueries
                0x01514346                glDeleteQueriesARB
                0x01514368                glEndQuery
                0x01514383                glEndQueryARB
                0x0151439e                glGenQueries
                0x015143c0                glGenQueriesARB
                0x015143e2                glGetQueryObjectiv
                0x0151440b                glGetQueryObjectivARB
                0x01514434                glGetQueryObjectuiv
                0x0151445d                glGetQueryObjectuivARB
                0x01514486                glGetQueryiv
                0x015144af                glGetQueryivARB
                0x015144d8                glIsQuery
                0x015144f3                glIsQueryARB
                0x0151450e                glAttachObjectARB
                0x01514530                glCompileShader
                0x0151454b                glCompileShaderARB
                0x01514566                glCreateProgramObjectARB
                0x0151457b                glCreateShaderObjectARB
                0x01514596                glDeleteObjectARB
                0x015145b1                glDetachObjectARB
                0x015145d3                glGetActiveUniform
                0x01514618                glGetActiveUniformARB
                0x0151465d                glGetAttachedObjectsARB
                0x0151468d                glGetHandleARB
                0x015146a8                glGetInfoLogARB
                0x015146d8                glGetObjectParameterfvARB
                0x01514701                glGetObjectParameterivARB
                0x0151472a                glGetShaderSource
                0x0151475a                glGetShaderSourceARB
                0x0151478a                glGetUniformLocation
                0x015147ac                glGetUniformLocationARB
                0x015147ce                glGetUniformfv
                0x015147f7                glGetUniformfvARB
                0x01514820                glGetUniformiv
                0x01514849                glGetUniformivARB
                0x01514872                glLinkProgram
                0x0151488d                glLinkProgramARB
                0x015148a8                glShaderSource
                0x015148d8                glShaderSourceARB
                0x01514908                glUniform1f
                0x0151492a                glUniform1fARB
                0x0151494c                glUniform1fv
                0x01514975                glUniform1fvARB
                0x0151499e                glUniform1i
                0x015149c0                glUniform1iARB
                0x015149e2                glUniform1iv
                0x01514a0b                glUniform1ivARB
                0x01514a34                glUniform2f
                0x01514a5d                glUniform2fARB
                0x01514a86                glUniform2fv
                0x01514aaf                glUniform2fvARB
                0x01514ad8                glUniform2i
                0x01514b01                glUniform2iARB
                0x01514b2a                glUniform2iv
                0x01514b53                glUniform2ivARB
                0x01514b7c                glUniform3f
                0x01514bac                glUniform3fARB
                0x01514bdc                glUniform3fv
                0x01514c05                glUniform3fvARB
                0x01514c2e                glUniform3i
                0x01514c5e                glUniform3iARB
                0x01514c8e                glUniform3iv
                0x01514cb7                glUniform3ivARB
                0x01514ce0                glUniform4f
                0x01514d17                glUniform4fARB
                0x01514d4e                glUniform4fv
                0x01514d77                glUniform4fvARB
                0x01514da0                glUniform4i
                0x01514dd7                glUniform4iARB
                0x01514e0e                glUniform4iv
                0x01514e37                glUniform4ivARB
                0x01514e60                glUniformMatrix2fv
                0x01514e9b                glUniformMatrix2fvARB
                0x01514ed6                glUniformMatrix3fv
                0x01514f11                glUniformMatrix3fvARB
                0x01514f4c                glUniformMatrix4fv
                0x01514f87                glUniformMatrix4fvARB
                0x01514fc2                glUseProgram
                0x01514fdd                glUseProgramObjectARB
                0x01514ff8                glValidateProgram
                0x01515013                glValidateProgramARB
                0x0151502e                glBindAttribLocation
                0x01515057                glBindAttribLocationARB
                0x01515080                glGetActiveAttrib
                0x015150c5                glGetActiveAttribARB
                0x0151510a                glGetAttribLocation
                0x0151512c                glGetAttribLocationARB
                0x0151514e                glDrawBuffers
                0x01515170                glDrawBuffersARB
                0x01515192                glDrawBuffersATI
                0x015151b4                glRenderbufferStorageMultisample
                0x015151eb                glPolygonOffsetEXT
                0x0151520d                gl_dispatch_stub_563
                0x0151522f                gl_dispatch_stub_564
                0x01515251                gl_dispatch_stub_565
                0x01515273                gl_dispatch_stub_566
                0x01515295                gl_dispatch_stub_567
                0x015152b7                gl_dispatch_stub_568
                0x015152d9                gl_dispatch_stub_569
                0x01515306                gl_dispatch_stub_570
                0x01515321                glColorPointerEXT
                0x01515358                glEdgeFlagPointerEXT
                0x01515381                glIndexPointerEXT
                0x015153b1                glNormalPointerEXT
                0x015153e1                glTexCoordPointerEXT
                0x01515418                glVertexPointerEXT
                0x0151544f                glPointParameterf
                0x01515471                glPointParameterfARB
                0x01515493                glPointParameterfEXT
                0x015154b5                gl_dispatch_stub_577
                0x015154d7                glPointParameterfv
                0x015154f9                glPointParameterfvARB
                0x0151551b                glPointParameterfvEXT
                0x0151553d                gl_dispatch_stub_578
                0x0151555f                glLockArraysEXT
                0x01515581                glUnlockArraysEXT
                0x01515596                gl_dispatch_stub_581
                0x015155b8                gl_dispatch_stub_582
                0x015155da                glSecondaryColor3b
                0x0151561d                glSecondaryColor3bEXT
                0x01515660                glSecondaryColor3bv
                0x0151567b                glSecondaryColor3bvEXT
                0x01515696                glSecondaryColor3d
                0x015156f8                glSecondaryColor3dEXT
                0x0151575a                glSecondaryColor3dv
                0x01515775                glSecondaryColor3dvEXT
                0x01515790                glSecondaryColor3f
                0x015157b9                glSecondaryColor3fEXT
                0x015157e2                glSecondaryColor3fv
                0x015157fd                glSecondaryColor3fvEXT
                0x01515818                glSecondaryColor3i
                0x01515841                glSecondaryColor3iEXT
                0x0151586a                glSecondaryColor3iv
                0x01515885                glSecondaryColor3ivEXT
                0x015158a0                glSecondaryColor3s
                0x015158e6                glSecondaryColor3sEXT
                0x0151592c                glSecondaryColor3sv
                0x01515947                glSecondaryColor3svEXT
                0x01515962                glSecondaryColor3ub
                0x015159af                glSecondaryColor3ubEXT
                0x015159fc                glSecondaryColor3ubv
                0x01515a17                glSecondaryColor3ubvEXT
                0x01515a32                glSecondaryColor3ui
                0x01515a5b                glSecondaryColor3uiEXT
                0x01515a84                glSecondaryColor3uiv
                0x01515a9f                glSecondaryColor3uivEXT
                0x01515aba                glSecondaryColor3us
                0x01515b0c                glSecondaryColor3usEXT
                0x01515b5e                glSecondaryColor3usv
                0x01515b79                glSecondaryColor3usvEXT
                0x01515b94                glSecondaryColorPointer
                0x01515bc4                glSecondaryColorPointerEXT
                0x01515bf4                glMultiDrawArrays
                0x01515c24                glMultiDrawArraysEXT
                0x01515c54                glMultiDrawElements
                0x01515c8b                glMultiDrawElementsEXT
                0x01515cc2                glFogCoordPointer
                0x01515ceb                glFogCoordPointerEXT
                0x01515d14                glFogCoordd
                0x01515d42                glFogCoorddEXT
                0x01515d70                glFogCoorddv
                0x01515d8b                glFogCoorddvEXT
                0x01515da6                glFogCoordf
                0x01515dc1                glFogCoordfEXT
                0x01515ddc                glFogCoordfv
                0x01515df7                glFogCoordfvEXT
                0x01515e12                gl_dispatch_stub_607
                0x01515e2d                glBlendFuncSeparate
                0x01515e5d                glBlendFuncSeparateEXT
                0x01515e8d                gl_dispatch_stub_608
                0x01515ebd                glFlushVertexArrayRangeNV
                0x01515ed2                glVertexArrayRangeNV
                0x01515ef4                glCombinerInputNV
                0x01515f32                glCombinerOutputNV
                0x01515fb0                glCombinerParameterfNV
                0x01515fd2                glCombinerParameterfvNV
                0x01515ff4                glCombinerParameteriNV
                0x01516016                glCombinerParameterivNV
                0x01516038                glFinalCombinerInputNV
                0x01516068                glGetCombinerInputParameterfvNV
                0x0151609f                glGetCombinerInputParameterivNV
                0x015160d6                glGetCombinerOutputParameterfvNV
                0x01516106                glGetCombinerOutputParameterivNV
                0x01516136                glGetFinalCombinerInputParameterfvNV
                0x0151615f                glGetFinalCombinerInputParameterivNV
                0x01516188                glResizeBuffersMESA
                0x0151619d                glWindowPos2d
                0x015161e5                glWindowPos2dARB
                0x0151622d                glWindowPos2dMESA
                0x01516275                glWindowPos2dv
                0x01516290                glWindowPos2dvARB
                0x015162ab                glWindowPos2dvMESA
                0x015162c6                glWindowPos2f
                0x015162e8                glWindowPos2fARB
                0x0151630a                glWindowPos2fMESA
                0x0151632c                glWindowPos2fv
                0x01516347                glWindowPos2fvARB
                0x01516362                glWindowPos2fvMESA
                0x0151637d                glWindowPos2i
                0x0151639f                glWindowPos2iARB
                0x015163c1                glWindowPos2iMESA
                0x015163e3                glWindowPos2iv
                0x015163fe                glWindowPos2ivARB
                0x01516419                glWindowPos2ivMESA
                0x01516434                glWindowPos2s
                0x01516466                glWindowPos2sARB
                0x01516498                glWindowPos2sMESA
                0x015164ca                glWindowPos2sv
                0x015164e5                glWindowPos2svARB
                0x01516500                glWindowPos2svMESA
                0x0151651b                glWindowPos3d
                0x0151657d                glWindowPos3dARB
                0x015165df                glWindowPos3dMESA
                0x01516641                glWindowPos3dv
                0x0151665c                glWindowPos3dvARB
                0x01516677                glWindowPos3dvMESA
                0x01516692                glWindowPos3f
                0x015166bb                glWindowPos3fARB
                0x015166e4                glWindowPos3fMESA
                0x0151670d                glWindowPos3fv
                0x01516728                glWindowPos3fvARB
                0x01516743                glWindowPos3fvMESA
                0x0151675e                glWindowPos3i
                0x01516787                glWindowPos3iARB
                0x015167b0                glWindowPos3iMESA
                0x015167d9                glWindowPos3iv
                0x015167f4                glWindowPos3ivARB
                0x0151680f                glWindowPos3ivMESA
                0x0151682a                glWindowPos3s
                0x01516870                glWindowPos3sARB
                0x015168b6                glWindowPos3sMESA
                0x015168fc                glWindowPos3sv
                0x01516917                glWindowPos3svARB
                0x01516932                glWindowPos3svMESA
                0x0151694d                glWindowPos4dMESA
                0x015169c9                glWindowPos4dvMESA
                0x015169e4                glWindowPos4fMESA
                0x01516a14                glWindowPos4fvMESA
                0x01516a2f                glWindowPos4iMESA
                0x01516a5f                glWindowPos4ivMESA
                0x01516a7a                glWindowPos4sMESA
                0x01516ad1                glWindowPos4svMESA
                0x01516aec                gl_dispatch_stub_649
                0x01516b23                gl_dispatch_stub_650
                0x01516b61                gl_dispatch_stub_651
                0x01516b83                gl_dispatch_stub_652
                0x01516b9e                gl_dispatch_stub_653
                0x01516bc0                gl_dispatch_stub_654
                0x01516be9                gl_dispatch_stub_655
                0x01516c04                gl_dispatch_stub_656
                0x01516c26                gl_dispatch_stub_657
                0x01516c41                glAreProgramsResidentNV
                0x01516c6a                glBindProgramARB
                0x01516c8c                glBindProgramNV
                0x01516cae                glDeleteProgramsARB
                0x01516cd0                glDeleteProgramsNV
                0x01516cf2                glExecuteProgramNV
                0x01516d1b                glGenProgramsARB
                0x01516d3d                glGenProgramsNV
                0x01516d5f                glGetProgramParameterdvNV
                0x01516d8f                glGetProgramParameterfvNV
                0x01516dbf                glGetProgramStringNV
                0x01516de8                glGetProgramivNV
                0x01516e11                glGetTrackMatrixivNV
                0x01516e41                glGetVertexAttribPointerv
                0x01516e6a                glGetVertexAttribPointervARB
                0x01516e93                glGetVertexAttribPointervNV
                0x01516ebc                glGetVertexAttribdvNV
                0x01516ee5                glGetVertexAttribfvNV
                0x01516f0e                glGetVertexAttribivNV
                0x01516f37                glIsProgramARB
                0x01516f52                glIsProgramNV
                0x01516f6d                glLoadProgramNV
                0x01516f9d                glProgramParameters4dvNV
                0x01516fcd                glProgramParameters4fvNV
                0x01516ffd                glRequestResidentProgramsNV
                0x0151701f                glTrackMatrixNV
                0x0151704f                glVertexAttrib1dNV
                0x01517084                glVertexAttrib1dvNV
                0x015170a6                glVertexAttrib1fNV
                0x015170c8                glVertexAttrib1fvNV
                0x015170ea                glVertexAttrib1sNV
                0x01517114                glVertexAttrib1svNV
                0x01517136                glVertexAttrib2dNV
                0x01517185                glVertexAttrib2dvNV
                0x015171a7                glVertexAttrib2fNV
                0x015171d0                glVertexAttrib2fvNV
                0x015171f2                glVertexAttrib2sNV
                0x0151722b                glVertexAttrib2svNV
                0x0151724d                glVertexAttrib3dNV
                0x015172b6                glVertexAttrib3dvNV
                0x015172d8                glVertexAttrib3fNV
                0x01517308                glVertexAttrib3fvNV
                0x0151732a                glVertexAttrib3sNV
                0x01517377                glVertexAttrib3svNV
                0x01517399                glVertexAttrib4dNV
                0x0151741c                glVertexAttrib4dvNV
                0x0151743e                glVertexAttrib4fNV
                0x01517475                glVertexAttrib4fvNV
                0x01517497                glVertexAttrib4sNV
                0x015174f5                glVertexAttrib4svNV
                0x01517517                glVertexAttrib4ubNV
                0x01517582                glVertexAttrib4ubvNV
                0x015175a4                glVertexAttribPointerNV
                0x015175db                glVertexAttribs1dvNV
                0x01517604                glVertexAttribs1fvNV
                0x0151762d                glVertexAttribs1svNV
                0x01517656                glVertexAttribs2dvNV
                0x0151767f                glVertexAttribs2fvNV
                0x015176a8                glVertexAttribs2svNV
                0x015176d1                glVertexAttribs3dvNV
                0x015176fa                glVertexAttribs3fvNV
                0x01517723                glVertexAttribs3svNV
                0x0151774c                glVertexAttribs4dvNV
                0x01517775                glVertexAttribs4fvNV
                0x0151779e                glVertexAttribs4svNV
                0x015177c7                glVertexAttribs4ubvNV
                0x015177f0                glGetTexBumpParameterfvATI
                0x01517812                glGetTexBumpParameterivATI
                0x01517834                glTexBumpParameterfvATI
                0x01517856                glTexBumpParameterivATI
                0x01517878                glAlphaFragmentOp1ATI
                0x015178b6                glAlphaFragmentOp2ATI
                0x01517909                glAlphaFragmentOp3ATI
                0x01517971                glBeginFragmentShaderATI
                0x01517986                glBindFragmentShaderATI
                0x015179a1                glColorFragmentOp1ATI
                0x015179e6                glColorFragmentOp2ATI
                0x01517a40                glColorFragmentOp3ATI
                0x01517aaf                glDeleteFragmentShaderATI
                0x01517aca                glEndFragmentShaderATI
                0x01517adf                glGenFragmentShadersATI
                0x01517afa                glPassTexCoordATI
                0x01517b23                glSampleMapATI
                0x01517b4c                glSetFragmentShaderConstantATI
                0x01517b6e                glPointParameteri
                0x01517b90                glPointParameteriNV
                0x01517bb2                glPointParameteriv
                0x01517bd4                glPointParameterivNV
                0x01517bf6                gl_dispatch_stub_738
                0x01517c11                gl_dispatch_stub_739
                0x01517c2c                gl_dispatch_stub_740
                0x01517c4e                gl_dispatch_stub_741
                0x01517c70                gl_dispatch_stub_742
                0x01517c8b                glGetProgramNamedParameterdvNV
                0x01517cbb                glGetProgramNamedParameterfvNV
                0x01517ceb                glProgramNamedParameter4dNV
                0x01517d7c                glProgramNamedParameter4dvNV
                0x01517dac                glProgramNamedParameter4fNV
                0x01517df1                glProgramNamedParameter4fvNV
                0x01517e21                gl_dispatch_stub_749
                0x01517e69                glBlendEquationSeparate
                0x01517e8b                gl_dispatch_stub_750
                0x01517ead                glBindFramebuffer
                0x01517ecf                glBindFramebufferEXT
                0x01517ef1                glBindRenderbuffer
                0x01517f13                glBindRenderbufferEXT
                0x01517f35                glCheckFramebufferStatus
                0x01517f50                glCheckFramebufferStatusEXT
                0x01517f6b                glDeleteFramebuffers
                0x01517f8d                glDeleteFramebuffersEXT
                0x01517faf                glDeleteRenderbuffers
                0x01517fd1                glDeleteRenderbuffersEXT
                0x01517ff3                glFramebufferRenderbuffer
                0x01518023                glFramebufferRenderbufferEXT
                0x01518053                glFramebufferTexture1D
                0x0151808a                glFramebufferTexture1DEXT
                0x015180c1                glFramebufferTexture2D
                0x015180f8                glFramebufferTexture2DEXT
                0x0151812f                glFramebufferTexture3D
                0x0151816d                glFramebufferTexture3DEXT
                0x015181ab                glGenFramebuffers
                0x015181cd                glGenFramebuffersEXT
                0x015181ef                glGenRenderbuffers
                0x01518211                glGenRenderbuffersEXT
                0x01518233                glGenerateMipmap
                0x0151824e                glGenerateMipmapEXT
                0x01518269                glGetFramebufferAttachmentParameteriv
                0x01518299                glGetFramebufferAttachmentParameterivEXT
                0x015182c9                glGetRenderbufferParameteriv
                0x015182f2                glGetRenderbufferParameterivEXT
                0x0151831b                glIsFramebuffer
                0x01518336                glIsFramebufferEXT
                0x01518351                glIsRenderbuffer
                0x0151836c                glIsRenderbufferEXT
                0x01518387                glRenderbufferStorage
                0x015183b7                glRenderbufferStorageEXT
                0x015183e7                glBlitFramebuffer
                0x01518441                gl_dispatch_stub_768
                0x0151849b                glFramebufferTextureLayer
                0x015184d2                glFramebufferTextureLayerEXT
                0x01518509                gl_dispatch_stub_770
                0x01518539                gl_dispatch_stub_771
                0x01518569                gl_dispatch_stub_772
                0x01518599                gl_dispatch_stub_773
                0x015185c2                gl_dispatch_stub_774
 *fill*         0x015185eb        0x1 
 .text          0x015185ec     0xd405 /home/kosmick/chiffos/ChiffOS/libc/libOSMesa32.a(glapi.o)
                0x015185ec                _glapi_noop_enable_warnings
                0x01518602                _glapi_set_warning_func
                0x01525999                _glapi_check_multithread
                0x0152599e                _glapi_set_context
                0x015259ab                _glapi_get_context
                0x015259b5                _glapi_set_dispatch
                0x015259cf                _glapi_get_dispatch
                0x015259e2                _glapi_get_dispatch_table_size
                0x015259ec                _glapi_check_table
 *fill*         0x015259f1        0x3 
 .text          0x015259f4      0x646 /home/kosmick/chiffos/ChiffOS/libc/libOSMesa32.a(glapi_getproc.o)
                0x01525c1e                _glapi_add_dispatch
                0x01525ede                _glapi_get_proc_offset
                0x01525f37                _glapi_get_proc_address
                0x01525fdc                _glapi_get_proc_name
 *fill*         0x0152603a        0x2 
 .text          0x0152603c     0x3097 /home/kosmick/chiffos/ChiffOS/libc/libOSMesa32.a(api_arrayelt.o)
                0x015285bc                _ae_create_context
                0x015286b3                _ae_destroy_context
                0x01528da4                _ae_map_vbos
                0x01528e44                _ae_unmap_vbos
                0x01528eeb                _ae_loopback_array_elt
                0x0152906a                _ae_invalidate_state
 *fill*         0x015290d3        0x1 
 .text          0x015290d4     0x18b5 /home/kosmick/chiffos/ChiffOS/libc/libOSMesa32.a(api_exec.o)
                0x015290d4                _mesa_init_exec_table
 *fill*         0x0152a989        0x3 
 .text          0x0152a98c     0x4b7b /home/kosmick/chiffos/ChiffOS/libc/libOSMesa32.a(api_loopback.o)
                0x0152eaf9                _mesa_loopback_init_api_table
 *fill*         0x0152f507        0x1 
 .text          0x0152f508     0x1e79 /home/kosmick/chiffos/ChiffOS/libc/libOSMesa32.a(api_noop.o)
                0x015307a5                _mesa_noop_Materialfv
                0x0153095d                _mesa_noop_Rectf
                0x01530c4e                _mesa_noop_EvalMesh1
                0x01530d45                _mesa_noop_EvalMesh2
                0x0153105c                _mesa_noop_vtxfmt_init
 *fill*         0x01531381        0x3 
 .text          0x01531384      0x689 /home/kosmick/chiffos/ChiffOS/libc/libOSMesa32.a(api_validate.o)
                0x01531549                _mesa_validate_DrawElements
                0x0153173a                _mesa_validate_DrawRangeElements
                0x01531927                _mesa_validate_DrawArrays
 *fill*         0x01531a0d        0x3 
 .text          0x01531a10      0x3b1 /home/kosmick/chiffos/ChiffOS/libc/libOSMesa32.a(accum.o)
                0x01531a10                _mesa_ClearAccum
                0x01531c00                _mesa_Accum
                0x01531d84                _mesa_init_accum
 *fill*         0x01531dc1        0x3 
 .text          0x01531dc4     0x46e9 /home/kosmick/chiffos/ChiffOS/libc/libOSMesa32.a(attrib.o)
                0x01531dec                _mesa_PushAttrib
                0x01534937                _mesa_PopAttrib
                0x01535e7a                _mesa_PushClientAttrib
                0x0153609f                _mesa_PopClientAttrib
                0x01536398                _mesa_free_attrib_data
                0x0153648e                _mesa_init_attrib
 *fill*         0x015364ad        0x3 
 .text          0x015364b0      0x8d1 /home/kosmick/chiffos/ChiffOS/libc/libOSMesa32.a(arrayobj.o)
                0x0153663f                _mesa_new_array_object
                0x01536678                _mesa_delete_array_object
                0x0153669d                _mesa_reference_array_object
                0x015367ae                _mesa_initialize_array_object
                0x01536969                _mesa_save_array_object
                0x0153699a                _mesa_remove_array_object
                0x015369c4                _mesa_BindVertexArrayAPPLE
                0x01536b16                _mesa_DeleteVertexArraysAPPLE
                0x01536c0d                _mesa_GenVertexArraysAPPLE
                0x01536d1e                _mesa_IsVertexArrayAPPLE
 *fill*         0x01536d81        0x3 
 .text          0x01536d84      0xf53 /home/kosmick/chiffos/ChiffOS/libc/libOSMesa32.a(blend.o)
                0x01536d84                _mesa_BlendFunc
                0x01536dac                _mesa_BlendFuncSeparateEXT
                0x01537158                _mesa_BlendEquation
                0x01537279                _mesa_BlendEquationSeparateEXT
                0x0153740d                _mesa_BlendColor
                0x0153761a                _mesa_AlphaFunc
                0x01537764                _mesa_LogicOp
                0x01537851                _mesa_IndexMask
                0x01537910                _mesa_ColorMask
                0x01537a60                _mesa_ClampColorARB
                0x01537b2e                _mesa_init_color
 *fill*         0x01537cd7        0x1 
 .text          0x01537cd8     0x1627 /home/kosmick/chiffos/ChiffOS/libc/libOSMesa32.a(bufferobj.o)
                0x01537eaa                _mesa_new_buffer_object
                0x01537edd                _mesa_delete_buffer_object
                0x01537f1b                _mesa_reference_buffer_object
                0x01537fcb                _mesa_initialize_buffer_object
                0x0153800c                _mesa_buffer_data
                0x0153807b                _mesa_buffer_subdata
                0x015380ae                _mesa_buffer_get_subdata
                0x015380f3                _mesa_buffer_map
                0x0153811b                _mesa_buffer_unmap
                0x0153812c                _mesa_init_buffer_objects
                0x01538334                _mesa_update_default_objects_buffer_objects
                0x015383a8                _mesa_validate_pbo_access
                0x0153848d                _mesa_map_bitmap_pbo
                0x015384ee                _mesa_unmap_bitmap_pbo
                0x01538526                _mesa_map_drawpix_pbo
                0x01538587                _mesa_unmap_drawpix_pbo
                0x015385bf                _mesa_map_readpix_pbo
                0x01538620                _mesa_unmap_readpix_pbo
                0x01538658                _mesa_lookup_bufferobj
                0x015386b5                _mesa_BindBufferARB
                0x01538709                _mesa_DeleteBuffersARB
                0x01538a47                _mesa_GenBuffersARB
                0x01538b7f                _mesa_IsBufferARB
                0x01538bd8                _mesa_BufferDataARB
                0x01538d46                _mesa_BufferSubDataARB
                0x01538de8                _mesa_GetBufferSubDataARB
                0x01538e8a                _mesa_MapBufferARB
                0x01538ffb                _mesa_UnmapBufferARB
                0x01539107                _mesa_GetBufferParameterivARB
                0x01539231                _mesa_GetBufferPointervARB
 *fill*         0x015392ff        0x1 
 .text          0x01539300      0xbea /home/kosmick/chiffos/ChiffOS/libc/libOSMesa32.a(buffers.o)
                0x015396dc                _mesa_DrawBuffer
                0x01539869                _mesa_DrawBuffersARB
                0x01539ad0                _mesa_drawbuffers
                0x01539d10                _mesa_readbuffer
                0x01539d69                _mesa_ReadBuffer
 *fill*         0x01539eea        0x2 
 .text          0x01539eec      0x5af /home/kosmick/chiffos/ChiffOS/libc/libOSMesa32.a(clear.o)
                0x01539eec                _mesa_ClearIndex
                0x01539ffa                _mesa_ClearColor
                0x0153a202                _mesa_Clear
 *fill*         0x0153a49b        0x1 
 .text          0x0153a49c      0x5d3 /home/kosmick/chiffos/ChiffOS/libc/libOSMesa32.a(clip.o)
                0x0153a49c                _mesa_ClipPlane
                0x0153a763                _mesa_GetClipPlane
                0x0153a849                _mesa_CullParameterfvEXT
                0x0153aa2c                _mesa_CullParameterdvEXT
 *fill*         0x0153aa6f        0x1 
 .text          0x0153aa70     0x2f29 /home/kosmick/chiffos/ChiffOS/libc/libOSMesa32.a(colortab.o)
                0x0153b5b5                _mesa_ColorTable
                0x0153bbc8                _mesa_ColorSubTable
                0x0153bff8                _mesa_CopyColorTable
                0x0153c0a2                _mesa_CopyColorSubTable
                0x0153c14c                _mesa_GetColorTable
                0x0153c885                _mesa_ColorTableParameterfv
                0x0153ca5a                _mesa_ColorTableParameteriv
                0x0153caf0                _mesa_GetColorTableParameterfv
                0x0153d0c2                _mesa_GetColorTableParameteriv
                0x0153d859                _mesa_init_colortable
                0x0153d885                _mesa_free_colortable_data
                0x0153d8d1                _mesa_init_colortables
                0x0153d935                _mesa_free_colortables_data
 *fill*         0x0153d999        0x3 
 .text          0x0153d99c     0x441f /home/kosmick/chiffos/ChiffOS/libc/libOSMesa32.a(convolve.o)
                0x0153da62                _mesa_ConvolutionFilter1D
                0x0153de42                _mesa_ConvolutionFilter2D
                0x0153e2ff                _mesa_ConvolutionParameterf
                0x0153e48c                _mesa_ConvolutionParameterfv
                0x0153e78f                _mesa_ConvolutionParameteri
                0x0153e8e5                _mesa_ConvolutionParameteriv
                0x0153ec4b                _mesa_CopyConvolutionFilter1D
                0x0153ed84                _mesa_CopyConvolutionFilter2D
                0x0153eef0                _mesa_GetConvolutionFilter
                0x0153f20a                _mesa_GetConvolutionParameterfv
                0x0153f553                _mesa_GetConvolutionParameteriv
                0x0153f925                _mesa_GetSeparableFilter
                0x0153fcfd                _mesa_SeparableFilter2D
                0x01541859                _mesa_convolve_1d_image
                0x01541968                _mesa_convolve_2d_image
                0x01541aef                _mesa_convolve_sep_image
                0x01541c8d                _mesa_adjust_image_for_convolution
 *fill*         0x01541dbb        0x1 
 .text          0x01541dbc     0x136c /home/kosmick/chiffos/ChiffOS/libc/libOSMesa32.a(depthstencil.o)
                0x015424e8                _mesa_new_z24_renderbuffer_wrapper
                0x01542c64                _mesa_new_s8_renderbuffer_wrapper
                0x01542d69                _mesa_extract_stencil
                0x01542e8a                _mesa_insert_stencil
                0x0154302c                _mesa_promote_stencil
 .text          0x01543128       0x19 /home/kosmick/chiffos/ChiffOS/libc/libOSMesa32.a(dlopen.o)
                0x01543128                _mesa_dlopen
                0x01543132                _mesa_dlsym
                0x0154313c                _mesa_dlclose
 *fill*         0x01543141        0x3 
 .text          0x01543144      0xb63 /home/kosmick/chiffos/ChiffOS/libc/libOSMesa32.a(drawpix.o)
                0x015431d8                _mesa_DrawPixels
                0x015435d0                _mesa_CopyPixels
                0x01543953                _mesa_Bitmap
 *fill*         0x01543ca7        0x1 
 .text          0x01543ca8     0x4965 /home/kosmick/chiffos/ChiffOS/libc/libOSMesa32.a(enable.o)
                0x01544002                _mesa_EnableClientState
                0x01544057                _mesa_DisableClientState
                0x015441e8                _mesa_set_enable
                0x015473e6                _mesa_Enable
                0x0154743b                _mesa_Disable
                0x015474d6                _mesa_IsEnabled
 *fill*         0x0154860d        0x3 
 .text          0x01548610       0x26 /home/kosmick/chiffos/ChiffOS/libc/libOSMesa32.a(execmem.o)
                0x01548610                _mesa_exec_malloc
                0x01548623                _mesa_exec_free
 *fill*         0x01548636        0x2 
 .text          0x01548638     0x51ba /home/kosmick/chiffos/ChiffOS/libc/libOSMesa32.a(ffvertex_prog.o)
                0x0154d718                _mesa_get_fixed_func_vertex_program
 *fill*         0x0154d7f2        0x2 
 .text          0x0154d7f4    0x1de23 /home/kosmick/chiffos/ChiffOS/libc/libOSMesa32.a(get.o)
                0x0154d7f4                _mesa_GetBooleanv
                0x0155580a                _mesa_GetFloatv
                0x0155d98c                _mesa_GetIntegerv
                0x0156b598                _mesa_GetDoublev
 *fill*         0x0156b617        0x1 
 .text          0x0156b618     0xa944 /home/kosmick/chiffos/ChiffOS/libc/libOSMesa32.a(mipmap.o)
                0x01574d58                _mesa_generate_mipmap_level
                0x01575094                _mesa_generate_mipmap
                0x01575711                _mesa_rescale_teximage2d
                0x01575ea9                _mesa_upscale_teximage2d
 .text          0x01575f5c     0x1e77 /home/kosmick/chiffos/ChiffOS/libc/libOSMesa32.a(rbadaptors.o)
                0x015763da                _mesa_new_renderbuffer_16wrap8
                0x01576b69                _mesa_new_renderbuffer_32wrap8
                0x01577ccc                _mesa_new_renderbuffer_32wrap16
 *fill*         0x01577dd3        0x1 
 .text          0x01577dd4      0x60f /home/kosmick/chiffos/ChiffOS/libc/libOSMesa32.a(readpix.o)
                0x01577dd4                _mesa_error_check_format_type
                0x01578141                _mesa_ReadPixels
 *fill*         0x015783e3        0x1 
 .text          0x015783e4     0x134c /home/kosmick/chiffos/ChiffOS/libc/libOSMesa32.a(shaders.o)
                0x015783e4                _mesa_AttachObjectARB
                0x01578413                _mesa_AttachShader
                0x01578442                _mesa_BindAttribLocationARB
                0x01578478                _mesa_CompileShaderARB
                0x015784a0                _mesa_CreateShader
                0x015784c8                _mesa_CreateShaderObjectARB
                0x015784f0                _mesa_CreateProgram
                0x01578511                _mesa_CreateProgramObjectARB
                0x01578532                _mesa_DeleteObjectARB
                0x015785b2                _mesa_DeleteProgram
                0x015785e0                _mesa_DeleteShader
                0x0157860e                _mesa_DetachObjectARB
                0x0157863d                _mesa_DetachShader
                0x0157866c                _mesa_GetActiveAttribARB
                0x015786be                _mesa_GetActiveUniformARB
                0x01578710                _mesa_GetAttachedObjectsARB
                0x0157874d                _mesa_GetAttachedShaders
                0x0157878a                _mesa_GetAttribLocationARB
                0x015787b9                _mesa_GetInfoLogARB
                0x0157887a                _mesa_GetObjectParameterivARB
                0x01578958                _mesa_GetObjectParameterfvARB
                0x01578987                _mesa_GetProgramiv
                0x015789bd                _mesa_GetShaderiv
                0x015789f3                _mesa_GetProgramInfoLog
                0x01578a30                _mesa_GetShaderInfoLog
                0x01578a6d                _mesa_GetShaderSourceARB
                0x01578aaa                _mesa_GetUniformfvARB
                0x01578ae0                _mesa_GetUniformivARB
                0x01578b16                _mesa_GetHandleARB
                0x01578b3e                _mesa_GetUniformLocationARB
                0x01578b6d                _mesa_IsProgram
                0x01578b95                _mesa_IsShader
                0x01578bbd                _mesa_LinkProgramARB
                0x01578c9a                _mesa_ShaderSourceARB
                0x01578f32                _mesa_Uniform1fARB
                0x01578f71                _mesa_Uniform2fARB
                0x01578fbc                _mesa_Uniform3fARB
                0x0157900d                _mesa_Uniform4fARB
                0x01579064                _mesa_Uniform1iARB
                0x015790a3                _mesa_Uniform2iARB
                0x015790ee                _mesa_Uniform3iARB
                0x0157913f                _mesa_Uniform4iARB
                0x01579196                _mesa_Uniform1fvARB
                0x015791d4                _mesa_Uniform2fvARB
                0x01579212                _mesa_Uniform3fvARB
                0x01579250                _mesa_Uniform4fvARB
                0x0157928e                _mesa_Uniform1ivARB
                0x015792cc                _mesa_Uniform2ivARB
                0x0157930a                _mesa_Uniform3ivARB
                0x01579348                _mesa_Uniform4ivARB
                0x01579386                _mesa_UniformMatrix2fvARB
                0x015793de                _mesa_UniformMatrix3fvARB
                0x01579436                _mesa_UniformMatrix4fvARB
                0x0157948e                _mesa_UniformMatrix2x3fv
                0x015794e6                _mesa_UniformMatrix3x2fv
                0x0157953e                _mesa_UniformMatrix2x4fv
                0x01579596                _mesa_UniformMatrix4x2fv
                0x015795ee                _mesa_UniformMatrix3x4fv
                0x01579646                _mesa_UniformMatrix4x3fv
                0x0157969e                _mesa_UseProgramObjectARB
                0x01579708                _mesa_ValidateProgramARB
 .text          0x01579730      0x58f /home/kosmick/chiffos/ChiffOS/libc/libOSMesa32.a(texcompress.o)
                0x01579730                _mesa_get_compressed_formats
                0x01579939                _mesa_compressed_texture_size
                0x015799f8                _mesa_compressed_texture_size_glenum
                0x01579b18                _mesa_compressed_row_stride
                0x01579ba3                _mesa_compressed_image_address
 *fill*         0x01579cbf        0x1 
 .text          0x01579cc0     0x2586 /home/kosmick/chiffos/ChiffOS/libc/libOSMesa32.a(texenv.o)
                0x0157a9f1                _mesa_TexEnvfv
                0x0157b0e2                _mesa_TexEnvf
                0x0157b103                _mesa_TexEnvi
                0x0157b13e                _mesa_TexEnviv
                0x0157b6b3                _mesa_GetTexEnvfv
                0x0157b929                _mesa_GetTexEnviv
                0x0157bc03                _mesa_TexBumpParameterivATI
                0x0157bccf                _mesa_TexBumpParameterfvATI
                0x0157be97                _mesa_GetTexBumpParameterivATI
                0x0157c098                _mesa_GetTexBumpParameterfvATI
 *fill*         0x0157c246        0x2 
 .text          0x0157c248     0x8067 /home/kosmick/chiffos/ChiffOS/libc/libOSMesa32.a(texformat.o)
                0x015838f6                _mesa_choose_tex_format
                0x01583f99                _mesa_format_to_type_and_comps
 *fill*         0x015842af        0x1 
 .text          0x015842b0      0xba3 /home/kosmick/chiffos/ChiffOS/libc/libOSMesa32.a(texgen.o)
                0x01584306                _mesa_TexGenfv
                0x015847a9                _mesa_TexGeniv
                0x0158482a                _mesa_TexGend
                0x0158485d                _mesa_TexGendv
                0x015848c6                _mesa_TexGenf
                0x015848e7                _mesa_TexGeni
                0x01584908                _mesa_GetTexGendv
                0x01584aa2                _mesa_GetTexGenfv
                0x01584c3c                _mesa_GetTexGeniv
 *fill*         0x01584e53        0x1 
 .text          0x01584e54      0xaf2 /home/kosmick/chiffos/ChiffOS/libc/libOSMesa32.a(texgetimage.o)
                0x01584ef1                _mesa_get_teximage
                0x015857eb                _mesa_get_compressed_teximage
 *fill*         0x01585946        0x2 
 .text          0x01585948     0x2d9e /home/kosmick/chiffos/ChiffOS/libc/libOSMesa32.a(texparam.o)
                0x0158688c                _mesa_TexParameterf
                0x015869d1                _mesa_TexParameterfv
                0x01586b18                _mesa_TexParameteri
                0x01586c45                _mesa_TexParameteriv
                0x01586ecc                _mesa_GetTexLevelParameterfv
                0x0158704c                _mesa_GetTexLevelParameteriv
                0x0158796c                _mesa_GetTexParameterfv
                0x01587fd8                _mesa_GetTexParameteriv
 *fill*         0x015886e6        0x2 
 .text          0x015886e8     0x14cc /home/kosmick/chiffos/ChiffOS/libc/libOSMesa32.a(texrender.o)
                0x01589b79                _mesa_render_texture
                0x01589baf                _mesa_finish_render_texture
 .text          0x01589bb4     0x1c4e /home/kosmick/chiffos/ChiffOS/libc/libOSMesa32.a(m_eval.o)
                0x01589bb4                _math_horner_bezier_curve
                0x01589d39                _math_horner_bezier_surf
                0x0158a00a                _math_de_casteljau_surf
                0x0158b7c9                _math_init_eval
 *fill*         0x0158b802        0x2 
 .text          0x0158b804     0x69ff /home/kosmick/chiffos/ChiffOS/libc/libOSMesa32.a(m_translate.o)
                0x01591fa9                _math_init_translate
                0x01591fb6                _math_trans_1f
                0x01591fef                _math_trans_1ui
                0x01592028                _math_trans_1ub
                0x01592061                _math_trans_4ub
                0x015920ac                _math_trans_4chan
                0x015920e9                _math_trans_4us
                0x01592134                _math_trans_4f
                0x0159217f                _math_trans_4fn
                0x015921ca                _math_trans_3fn
 *fill*         0x01592203        0x1 
 .text          0x01592204      0x3f1 /home/kosmick/chiffos/ChiffOS/libc/libOSMesa32.a(m_vector.o)
                0x01592204                _mesa_vector4f_clean_elem
                0x0159226c                _mesa_vector4f_init
                0x015922b2                _mesa_vector4f_alloc
                0x01592321                _mesa_vector4f_free
                0x01592372                _mesa_vector4f_print
 *fill*         0x015925f5        0x3 
 .text          0x015925f8     0x3ae3 /home/kosmick/chiffos/ChiffOS/libc/libOSMesa32.a(m_xform.o)
                0x015960bd                _math_init_transformation
 *fill*         0x015960db        0x1 
 .text          0x015960dc      0x50d /home/kosmick/chiffos/ChiffOS/libc/libOSMesa32.a(vbo_rebase.o)
                0x015961e2                vbo_all_varyings_in_vbos
                0x01596235                vbo_rebase_prims
 *fill*         0x015965e9        0x3 
 .text          0x015965ec      0x252 /home/kosmick/chiffos/ChiffOS/libc/libOSMesa32.a(vbo_split.o)
                0x015965ec                split_prim_inplace
                0x015966be                vbo_split_prims
 *fill*         0x0159683e        0x2 
 .text          0x01596840     0x1137 /home/kosmick/chiffos/ChiffOS/libc/libOSMesa32.a(vbo_split_copy.o)
                0x01597896                vbo_split_copy
 *fill*         0x01597977        0x1 
 .text          0x01597978      0x6f4 /home/kosmick/chiffos/ChiffOS/libc/libOSMesa32.a(vbo_split_inplace.o)
                0x01597fe4                vbo_split_inplace
 .text          0x0159806c     0x1df3 /home/kosmick/chiffos/ChiffOS/libc/libOSMesa32.a(t_rasterpos.o)
                0x015993b4                _tnl_RasterPos
 *fill*         0x01599e5f        0x1 
 .text          0x01599e60     0x5527 /home/kosmick/chiffos/ChiffOS/libc/libOSMesa32.a(arbprogparse.o)
                0x0159ef85                _mesa_parse_arb_fragment_program
                0x0159f217                _mesa_parse_arb_vertex_program
 *fill*         0x0159f387        0x1 
 .text          0x0159f388     0x44b2 /home/kosmick/chiffos/ChiffOS/libc/libOSMesa32.a(grammar_mesa.o)
                0x015a2c3b                grammar_load_from_text
                0x015a31b9                grammar_set_reg8
                0x015a34e9                grammar_check
                0x015a3521                grammar_fast_check
                0x015a3558                grammar_destroy
                0x015a3666                grammar_get_last_error
                0x015a3736                grammar_alloc_free
                0x015a3749                grammar_alloc_malloc
                0x015a375c                grammar_alloc_realloc
                0x015a377d                grammar_memory_copy
                0x015a379e                grammar_string_compare
                0x015a37b8                grammar_string_compare_n
                0x015a37d9                grammar_string_copy
                0x015a37f3                grammar_string_copy_n
                0x015a3814                grammar_string_duplicate
                0x015a3827                grammar_string_length
 *fill*         0x015a383a        0x2 
 .text          0x015a383c     0x39d5 /home/kosmick/chiffos/ChiffOS/libc/libOSMesa32.a(nvfragparse.o)
                0x015a6eb7                _mesa_parse_nv_fragment_program
                0x015a7202                _mesa_nv_fragment_input_register_name
 *fill*         0x015a7211        0x3 
 .text          0x015a7214     0x1312 /home/kosmick/chiffos/ChiffOS/libc/libOSMesa32.a(prog_optimize.o)
                0x015a8508                _mesa_optimize_program
 *fill*         0x015a8526        0x2 
 .text          0x015a8528     0x1e2d /home/kosmick/chiffos/ChiffOS/libc/libOSMesa32.a(prog_print.o)
                0x015a8b18                _mesa_swizzle_string
                0x015a8c91                _mesa_print_swizzle
                0x015a8ce1                _mesa_writemask_string
                0x015a8d88                _mesa_condcode_string
                0x015a913d                _mesa_print_alu_instruction
                0x015a9c03                _mesa_print_instruction_opt
                0x015a9c37                _mesa_print_instruction
                0x015a9c6e                _mesa_fprint_program_opt
                0x015a9db8                _mesa_print_program
                0x015a9f56                _mesa_print_program_parameters
                0x015aa151                _mesa_print_parameter_list
                0x015aa170                _mesa_write_shader_to_file
 *fill*         0x015aa355        0x3 
 .text          0x015aa358      0x30f /home/kosmick/chiffos/ChiffOS/libc/libOSMesa32.a(prog_uniform.o)
                0x015aa358                _mesa_new_uniform_list
                0x015aa36c                _mesa_free_uniform_list
                0x015aa3bc                _mesa_append_uniform
                0x015aa535                _mesa_lookup_uniform
                0x015aa587                _mesa_longest_uniform_name
                0x015aa5df                _mesa_print_uniforms
 *fill*         0x015aa667        0x1 
 .text          0x015aa668     0x2aa5 /home/kosmick/chiffos/ChiffOS/libc/libOSMesa32.a(s_aaline.o)
                0x015ad074                _swrast_choose_aa_line_function
 *fill*         0x015ad10d        0x3 
 .text          0x015ad110     0x34ac /home/kosmick/chiffos/ChiffOS/libc/libOSMesa32.a(s_aatriangle.o)
                0x015b0493                _swrast_set_aa_triangle_function
 .text          0x015b05bc     0x1e94 /home/kosmick/chiffos/ChiffOS/libc/libOSMesa32.a(s_accum.o)
                0x015b092e                _swrast_clear_accum_buffer
                0x015b221f                _swrast_Accum
 .text          0x015b2450      0xebf /home/kosmick/chiffos/ChiffOS/libc/libOSMesa32.a(s_alpha.o)
                0x015b2450                _swrast_alpha_test
 *fill*         0x015b330f        0x1 
 .text          0x015b3310     0x1e5d /home/kosmick/chiffos/ChiffOS/libc/libOSMesa32.a(s_atifragshader.o)
                0x015b5043                _swrast_exec_fragment_shader
 *fill*         0x015b516d        0x3 
 .text          0x015b5170      0x348 /home/kosmick/chiffos/ChiffOS/libc/libOSMesa32.a(s_bitmap.o)
                0x015b51d8                _swrast_Bitmap
 .text          0x015b54b8     0x34a3 /home/kosmick/chiffos/ChiffOS/libc/libOSMesa32.a(s_blend.o)
                0x015b86c6                _swrast_choose_blend_func
                0x015b88c7                _swrast_blend_span
 *fill*         0x015b895b        0x1 
 .text          0x015b895c     0x163f /home/kosmick/chiffos/ChiffOS/libc/libOSMesa32.a(s_blit.o)
                0x015b9d21                _swrast_BlitFramebuffer
 *fill*         0x015b9f9b        0x1 
 .text          0x015b9f9c     0x162c /home/kosmick/chiffos/ChiffOS/libc/libOSMesa32.a(s_clear.o)
                0x015bb4fe                _swrast_Clear
 .text          0x015bb5c8     0x2008 /home/kosmick/chiffos/ChiffOS/libc/libOSMesa32.a(s_copypix.o)
                0x015bd3d3                _swrast_CopyPixels
 .text          0x015bd5d0     0x2f30 /home/kosmick/chiffos/ChiffOS/libc/libOSMesa32.a(s_depth.o)
                0x015bf7c8                _swrast_depth_test_span
                0x015bf806                _swrast_depth_bounds_test
                0x015bfbcc                _swrast_read_depth_span_float
                0x015bfe34                _swrast_read_depth_span_uint
                0x015c0123                _swrast_clear_depth_buffer
 .text          0x015c0500     0x2564 /home/kosmick/chiffos/ChiffOS/libc/libOSMesa32.a(s_drawpix.o)
                0x015c2763                _swrast_DrawPixels
 .text          0x015c2a64      0x3ed /home/kosmick/chiffos/ChiffOS/libc/libOSMesa32.a(s_feedback.o)
                0x015c2b3a                _swrast_feedback_triangle
                0x015c2c3a                _swrast_feedback_line
                0x015c2d0e                _swrast_feedback_point
                0x015c2d43                _swrast_select_triangle
                0x015c2dcd                _swrast_select_line
                0x015c2e1b                _swrast_select_point
 *fill*         0x015c2e51        0x3 
 .text          0x015c2e54     0x4091 /home/kosmick/chiffos/ChiffOS/libc/libOSMesa32.a(s_fog.o)
                0x015c2e62                _swrast_z_to_fogfactor
                0x015c2fec                _swrast_fog_rgba_span
                0x015c634c                _swrast_fog_ci_span
 *fill*         0x015c6ee5        0x3 
 .text          0x015c6ee8      0x93a /home/kosmick/chiffos/ChiffOS/libc/libOSMesa32.a(s_fragprog.o)
                0x015c7780                _swrast_exec_fragment_program
 *fill*         0x015c7822        0x2 
 .text          0x015c7824      0x505 /home/kosmick/chiffos/ChiffOS/libc/libOSMesa32.a(s_imaging.o)
                0x015c788c                _swrast_CopyColorTable
                0x015c7976                _swrast_CopyColorSubTable
                0x015c7a60                _swrast_CopyConvolutionFilter1D
                0x015c7b3a                _swrast_CopyConvolutionFilter2D
 *fill*         0x015c7d29        0x3 
 .text          0x015c7d2c     0x126e /home/kosmick/chiffos/ChiffOS/libc/libOSMesa32.a(s_logic.o)
                0x015c8d6d                _swrast_logicop_ci_span
                0x015c8e6e                _swrast_logicop_rgba_span
 *fill*         0x015c8f9a        0x2 
 .text          0x015c8f9c      0x55f /home/kosmick/chiffos/ChiffOS/libc/libOSMesa32.a(s_masking.o)
                0x015c8f9c                _swrast_mask_rgba_span
                0x015c93d7                _swrast_mask_ci_span
 *fill*         0x015c94fb        0x1 
 .text          0x015c94fc     0x164d /home/kosmick/chiffos/ChiffOS/libc/libOSMesa32.a(s_readpix.o)
                0x015ca892                _swrast_ReadPixels
 *fill*         0x015cab49        0x3 
 .text          0x015cab4c     0x162c /home/kosmick/chiffos/ChiffOS/libc/libOSMesa32.a(s_texstore.o)
                0x015cb0d4                _swrast_copy_teximage1d
                0x015cb41f                _swrast_copy_teximage2d
                0x015cb77c                _swrast_copy_texsubimage1d
                0x015cbaa7                _swrast_copy_texsubimage2d
                0x015cbdf9                _swrast_copy_texsubimage3d
 .text          0x015cc178     0x12d9 /home/kosmick/chiffos/ChiffOS/libc/libOSMesa32.a(s_zoom.o)
                0x015cd083                _swrast_write_zoomed_rgba_span
                0x015cd0ba                _swrast_write_zoomed_rgb_span
                0x015cd0f1                _swrast_write_zoomed_index_span
                0x015cd133                _swrast_write_zoomed_depth_span
                0x015cd175                _swrast_write_zoomed_stencil_span
                0x015cd28f                _swrast_write_zoomed_z_span
 *fill*         0x015cd451        0x3 
 .text          0x015cd454     0x8743 /home/kosmick/chiffos/ChiffOS/libc/libOSMesa32.a(slang_codegen.o)
                0x015cd639                _slang_sizeof_type_specifier
                0x015d4f5c                _slang_codegen_global_variable
                0x015d598c                _slang_codegen_function
 *fill*         0x015d5b97        0x1 
 .text          0x015d5b98     0x473a /home/kosmick/chiffos/ChiffOS/libc/libOSMesa32.a(slang_emit.o)
                0x015d5d2c                _slang_swizzle_swizzle
                0x015d5daf                _slang_var_swizzle
                0x015da176                _slang_emit_code
 *fill*         0x015da2d2        0x2 
 .text          0x015da2d4      0x95e /home/kosmick/chiffos/ChiffOS/libc/libOSMesa32.a(slang_ir.o)
                0x015da2d4                _slang_ir_info
                0x015da333                _slang_init_ir_storage
                0x015da36c                _slang_new_ir_storage
                0x015da3c1                _slang_new_ir_storage_swz
                0x015da415                _slang_new_ir_storage_relative
                0x015da46a                _slang_new_ir_storage_indirect
                0x015da4d0                _slang_new_ir_storage_sampler
                0x015da531                _slang_copy_ir_storage
                0x015da5b0                _slang_free_ir_tree
                0x015da64f                _slang_print_ir_tree
 *fill*         0x015dac32        0x2 
 .text          0x015dac34      0x292 /home/kosmick/chiffos/ChiffOS/libc/libOSMesa32.a(slang_label.o)
                0x015dac34                _slang_label_new
                0x015dac6e                _slang_label_new_unique
                0x015dacff                _slang_label_delete
                0x015dad53                _slang_label_add_reference
                0x015dade9                _slang_label_get_location
                0x015dadf4                _slang_label_set_location
 *fill*         0x015daec6        0x2 
 .text          0x015daec8     0x19f8 /home/kosmick/chiffos/ChiffOS/libc/libOSMesa32.a(slang_print.o)
                0x015db460                slang_print_tree
                0x015dc4f3                slang_print_function
                0x015dc596                slang_type_qual_string
                0x015dc730                slang_print_type
                0x015dc76e                slang_print_variable
                0x015dc7a7                _slang_print_var_scope
                0x015dc875                slang_checksum_tree
 .text          0x015dc8c0     0x1486 /home/kosmick/chiffos/ChiffOS/libc/libOSMesa32.a(slang_builtin.o)
                0x015ddba2                _slang_alloc_statevar
 *fill*         0x015ddd46        0xa 
 .text          0x015ddd50       0x87 /home/kosmick/chiffos/ChiffOS/libc/libc.a(lib_a-assert.o)
                0x015ddd50                __assert_func
                0x015dddb0                __assert
 *fill*         0x015dddd7        0x9 
 .text          0x015ddde0       0x5b /home/kosmick/chiffos/ChiffOS/libc/libc.a(lib_a-atoi.o)
                0x015ddde0                atoi
                0x015dde10                _atoi_r
 *fill*         0x015dde3b        0x5 
 .text          0x015dde40       0x6a /home/kosmick/chiffos/ChiffOS/libc/libc.a(lib_a-bsearch.o)
                0x015dde40                bsearch
 *fill*         0x015ddeaa        0x6 
 .text          0x015ddeb0       0x24 /home/kosmick/chiffos/ChiffOS/libc/libc.a(lib_a-calloc.o)
                0x015ddeb0                calloc
 *fill*         0x015dded4        0xc 
 .text          0x015ddee0       0xc4 /home/kosmick/chiffos/ChiffOS/libc/libc.a(lib_a-callocr.o)
                0x015ddee0                _calloc_r
 *fill*         0x015ddfa4        0xc 
 .text          0x015ddfb0       0x32 /home/kosmick/chiffos/ChiffOS/libc/libc.a(lib_a-exit.o)
                0x015ddfb0                exit
 *fill*         0x015ddfe2        0xe 
 .text          0x015ddff0      0x11c /home/kosmick/chiffos/ChiffOS/libc/libc.a(lib_a-fclose.o)
                0x015ddff0                _fclose_r
                0x015de0f0                fclose
 *fill*         0x015de10c        0x4 
 .text          0x015de110      0x279 /home/kosmick/chiffos/ChiffOS/libc/libc.a(lib_a-fflush.o)
                0x015de110                __sflush_r
                0x015de2f0                _fflush_r
                0x015de350                fflush
 *fill*         0x015de389        0x7 
 .text          0x015de390       0x20 /home/kosmick/chiffos/ChiffOS/libc/libc.a(lib_a-ffs.o)
                0x015de390                ffs
 .text          0x015de3b0      0x40c /home/kosmick/chiffos/ChiffOS/libc/libc.a(lib_a-findfp.o)
                0x015de3d0                _cleanup_r
                0x015de3f0                __sfmoreglue
                0x015de450                _cleanup
                0x015de470                __sinit
                0x015de630                __sfp
                0x015de740                __sfp_lock_acquire
                0x015de750                __sfp_lock_release
                0x015de760                __sinit_lock_acquire
                0x015de770                __sinit_lock_release
                0x015de780                __fp_lock_all
                0x015de7a0                __fp_unlock_all
 *fill*         0x015de7bc        0x4 
 .text          0x015de7c0       0x5c /home/kosmick/chiffos/ChiffOS/libc/libc.a(lib_a-fiprintf.o)
                0x015de7c0                _fiprintf_r
                0x015de7f0                fiprintf
 *fill*         0x015de81c        0x4 
 .text          0x015de820      0x114 /home/kosmick/chiffos/ChiffOS/libc/libc.a(lib_a-fopen.o)
                0x015de820                _fopen_r
                0x015de910                fopen
 *fill*         0x015de934        0xc 
 .text          0x015de940       0x5c /home/kosmick/chiffos/ChiffOS/libc/libc.a(lib_a-fprintf.o)
                0x015de940                _fprintf_r
                0x015de970                fprintf
 *fill*         0x015de99c        0x4 
 .text          0x015de9a0       0x84 /home/kosmick/chiffos/ChiffOS/libc/libc.a(lib_a-fputc.o)
                0x015de9a0                _fputc_r
                0x015de9e0                fputc
 *fill*         0x015dea24        0xc 
 .text          0x015dea30       0xb4 /home/kosmick/chiffos/ChiffOS/libc/libc.a(lib_a-fputs.o)
                0x015dea30                _fputs_r
                0x015deac0                fputs
 *fill*         0x015deae4        0xc 
 .text          0x015deaf0      0x224 /home/kosmick/chiffos/ChiffOS/libc/libc.a(lib_a-fread.o)
                0x015deaf0                _fread_r
                0x015dece0                fread
 *fill*         0x015ded14        0xc 
 .text          0x015ded20      0x364 /home/kosmick/chiffos/ChiffOS/libc/libc.a(lib_a-freer.o)
                0x015ded20                _malloc_trim_r
                0x015dee10                _free_r
 *fill*         0x015df084        0xc 
 .text          0x015df090      0x51c /home/kosmick/chiffos/ChiffOS/libc/libc.a(lib_a-fseek.o)
                0x015df090                _fseek_r
                0x015df580                fseek
 *fill*         0x015df5ac        0x4 
 .text          0x015df5b0       0x44 /home/kosmick/chiffos/ChiffOS/libc/libc.a(lib_a-fstatr.o)
                0x015df5b0                _fstat_r
 *fill*         0x015df5f4        0xc 
 .text          0x015df600      0x57c /home/kosmick/chiffos/ChiffOS/libc/libc.a(lib_a-fvwrite.o)
                0x015df600                __sfvwrite_r
 *fill*         0x015dfb7c        0x4 
 .text          0x015dfb80       0xd9 /home/kosmick/chiffos/ChiffOS/libc/libc.a(lib_a-fwalk.o)
                0x015dfb80                _fwalk
                0x015dfbf0                _fwalk_reent
 *fill*         0x015dfc59        0x7 
 .text          0x015dfc60       0xe4 /home/kosmick/chiffos/ChiffOS/libc/libc.a(lib_a-fwrite.o)
                0x015dfc60                _fwrite_r
                0x015dfd10                fwrite
 *fill*         0x015dfd44        0xc 
 .text          0x015dfd50       0x54 /home/kosmick/chiffos/ChiffOS/libc/libc.a(lib_a-getenv.o)
                0x015dfd50                _findenv
                0x015dfd80                getenv
 *fill*         0x015dfda4        0xc 
 .text          0x015dfdb0      0x103 /home/kosmick/chiffos/ChiffOS/libc/libc.a(lib_a-getenv_r.o)
                0x015dfdb0                _findenv_r
                0x015dfe90                _getenv_r
 *fill*         0x015dfeb3        0x1 
 .text          0x015dfeb4        0x0 /home/kosmick/chiffos/ChiffOS/libc/libc.a(lib_a-impure.o)
 *fill*         0x015dfeb4        0xc 
 .text          0x015dfec0      0x152 /home/kosmick/chiffos/ChiffOS/libc/libc.a(lib_a-makebuf.o)
                0x015dfec0                __smakebuf_r
 *fill*         0x015e0012        0xe 
 .text          0x015e0020       0x3c /home/kosmick/chiffos/ChiffOS/libc/libc.a(lib_a-malloc.o)
                0x015e0020                malloc
                0x015e0040                free
 *fill*         0x015e005c        0x4 
 .text          0x015e0060      0x73f /home/kosmick/chiffos/ChiffOS/libc/libc.a(lib_a-mallocr.o)
                0x015e0060                _malloc_r
 *fill*         0x015e079f        0x1 
 .text          0x015e07a0       0x95 /home/kosmick/chiffos/ChiffOS/libc/libc.a(lib_a-memchr.o)
                0x015e07a0                memchr
 *fill*         0x015e0835        0x3 
 .text          0x015e0838       0x52 /home/kosmick/chiffos/ChiffOS/libc/libc.a(lib_a-memcmp.o)
                0x015e0838                memcmp
 *fill*         0x015e088a        0x2 
 .text          0x015e088c       0x48 /home/kosmick/chiffos/ChiffOS/libc/libc.a(lib_a-memcpy.o)
                0x015e088c                memcpy
 *fill*         0x015e08d4        0xc 
 .text          0x015e08e0       0x8d /home/kosmick/chiffos/ChiffOS/libc/libc.a(lib_a-memmove.o)
                0x015e08e0                memmove
 *fill*         0x015e096d        0x3 
 .text          0x015e0970       0x88 /home/kosmick/chiffos/ChiffOS/libc/libc.a(lib_a-memset.o)
                0x015e0970                memset
 *fill*         0x015e09f8        0x8 
 .text          0x015e0a00       0x11 /home/kosmick/chiffos/ChiffOS/libc/libc.a(lib_a-mlock.o)
                0x015e0a00                __malloc_lock
                0x015e0a10                __malloc_unlock
 *fill*         0x015e0a11        0xf 
 .text          0x015e0a20       0x54 /home/kosmick/chiffos/ChiffOS/libc/libc.a(lib_a-openr.o)
                0x015e0a20                _open_r
 *fill*         0x015e0a74        0xc 
 .text          0x015e0a80       0x5b /home/kosmick/chiffos/ChiffOS/libc/libc.a(lib_a-printf.o)
                0x015e0a80                _printf_r
                0x015e0ab0                printf
 *fill*         0x015e0adb        0x5 
 .text          0x015e0ae0      0x17e /home/kosmick/chiffos/ChiffOS/libc/libc.a(lib_a-putc.o)
                0x015e0ae0                _putc_r
                0x015e0b90                putc
 *fill*         0x015e0c5e        0x2 
 .text          0x015e0c60       0x53 /home/kosmick/chiffos/ChiffOS/libc/libc.a(lib_a-putchar.o)
                0x015e0c60                _putchar_r
                0x015e0c90                putchar
 *fill*         0x015e0cb3        0xd 
 .text          0x015e0cc0       0xac /home/kosmick/chiffos/ChiffOS/libc/libc.a(lib_a-puts.o)
                0x015e0cc0                _puts_r
                0x015e0d50                puts
 *fill*         0x015e0d6c        0x4 
 .text          0x015e0d70      0x8d7 /home/kosmick/chiffos/ChiffOS/libc/libc.a(lib_a-qsort.o)
                0x015e0d70                qsort
 *fill*         0x015e1647        0x9 
 .text          0x015e1650      0x529 /home/kosmick/chiffos/ChiffOS/libc/libc.a(lib_a-reallocr.o)
                0x015e1650                _realloc_r
 *fill*         0x015e1b79        0x7 
 .text          0x015e1b80      0x19c /home/kosmick/chiffos/ChiffOS/libc/libc.a(lib_a-reent.o)
                0x015e1b80                cleanup_glue
                0x015e1bc0                _reclaim_reent
                0x015e1cc0                _wrapup_reent
 *fill*         0x015e1d1c        0x4 
 .text          0x015e1d20      0x215 /home/kosmick/chiffos/ChiffOS/libc/libc.a(lib_a-refill.o)
                0x015e1d50                __srefill_r
 *fill*         0x015e1f35        0xb 
 .text          0x015e1f40       0xa7 /home/kosmick/chiffos/ChiffOS/libc/libc.a(lib_a-s_frexp.o)
                0x015e1f40                frexp
 *fill*         0x015e1fe7        0x9 
 .text          0x015e1ff0       0x95 /home/kosmick/chiffos/ChiffOS/libc/libc.a(lib_a-s_ldexp.o)
                0x015e1ff0                ldexp
 *fill*         0x015e2085        0xb 
 .text          0x015e2090      0x177 /home/kosmick/chiffos/ChiffOS/libc/libc.a(lib_a-s_scalbn.o)
                0x015e2090                scalbn
 *fill*         0x015e2207        0x9 
 .text          0x015e2210       0x44 /home/kosmick/chiffos/ChiffOS/libc/libc.a(lib_a-sbrkr.o)
                0x015e2210                _sbrk_r
 *fill*         0x015e2254        0xc 
 .text          0x015e2260       0xdc /home/kosmick/chiffos/ChiffOS/libc/libc.a(lib_a-sprintf.o)
                0x015e2260                _sprintf_r
                0x015e22d0                sprintf
 *fill*         0x015e233c        0x4 
 .text          0x015e2340      0x131 /home/kosmick/chiffos/ChiffOS/libc/libc.a(lib_a-stdio.o)
                0x015e2340                __sread
                0x015e2390                __seofread
                0x015e23a0                __swrite
                0x015e2410                __sseek
                0x015e2460                __sclose
 *fill*         0x015e2471        0xf 
 .text          0x015e2480       0xfc /home/kosmick/chiffos/ChiffOS/libc/libc.a(lib_a-strchr.o)
                0x015e2480                strchr
 *fill*         0x015e257c        0x4 
 .text          0x015e2580       0x73 /home/kosmick/chiffos/ChiffOS/libc/libc.a(lib_a-strcmp.o)
                0x015e2580                strcmp
 *fill*         0x015e25f3        0xd 
 .text          0x015e2600       0x60 /home/kosmick/chiffos/ChiffOS/libc/libc.a(lib_a-strcpy.o)
                0x015e2600                strcpy
 .text          0x015e2660       0x79 /home/kosmick/chiffos/ChiffOS/libc/libc.a(lib_a-strlen.o)
                0x015e2660                strlen
 *fill*         0x015e26d9        0x7 
 .text          0x015e26e0       0x91 /home/kosmick/chiffos/ChiffOS/libc/libc.a(lib_a-strncat.o)
                0x015e26e0                strncat
 *fill*         0x015e2771        0xf 
 .text          0x015e2780      0x106 /home/kosmick/chiffos/ChiffOS/libc/libc.a(lib_a-strncmp.o)
                0x015e2780                strncmp
 *fill*         0x015e2886        0xa 
 .text          0x015e2890       0xa0 /home/kosmick/chiffos/ChiffOS/libc/libc.a(lib_a-strncpy.o)
                0x015e2890                strncpy
 .text          0x015e2930      0x7fe /home/kosmick/chiffos/ChiffOS/libc/libc.a(lib_a-strstr.o)
                0x015e2de0                strstr
 *fill*         0x015e312e        0x2 
 .text          0x015e3130     0x1522 /home/kosmick/chiffos/ChiffOS/libc/libc.a(lib_a-strtod.o)
                0x015e3130                _strtod_r
                0x015e45d0                strtod
                0x015e4600                strtof
 *fill*         0x015e4652        0xe 
 .text          0x015e4660      0x22c /home/kosmick/chiffos/ChiffOS/libc/libc.a(lib_a-strtol.o)
                0x015e4660                _strtol_r
                0x015e4860                strtol
 *fill*         0x015e488c        0x4 
 .text          0x015e4890     0x20de /home/kosmick/chiffos/ChiffOS/libc/libc.a(lib_a-svfprintf.o)
                0x015e4890                _svfprintf_r
 *fill*         0x015e696e        0x2 
 .text          0x015e6970      0xed1 /home/kosmick/chiffos/ChiffOS/libc/libc.a(lib_a-syscalls.o)
                0x015e6970                sys_puts
                0x015e6980                sys_cli
                0x015e6990                sys_getchar
                0x015e69a0                sys_putchar
                0x015e69b0                sys_open
                0x015e69d0                sys_read
                0x015e69f0                sys_execve
                0x015e6a10                sys_setxy
                0x015e6a30                sys_clear
                0x015e6a40                sys_reboot
                0x015e6a50                sys_setx
                0x015e6a60                sys_write
                0x015e6a80                sys_put_dec
                0x015e6a90                sys_fstat
                0x015e6ab0                sys_swap
                0x015e6ac0                sys_sbrk
                0x015e6ad0                sys_giveSCREEN
                0x015e6ae0                sys_get_system_time
                0x015e6af0                sys_gettimeofday
                0x015e6b10                sys_nanosleep
                0x015e6b30                sys_wait
                0x015e6b40                sys_physicaltovirt
                0x015e6b60                sys_getppid
                0x015e6b70                sys_waitpid
                0x015e6b90                sys_VBEstart
                0x015e6ba0                sys_getcwd
                0x015e6bc0                sys_dup
                0x015e6bd0                sys_dup2
                0x015e6bf0                sys_pipe
                0x015e6c00                sys_access
                0x015e6c20                sys_ioctl
                0x015e6c40                sys_getpid
                0x015e6c50                sys_stat
                0x015e6c70                sys_chdir
                0x015e6c80                sys_getdents
                0x015e6ca0                sys_sti
                0x015e6cb0                sys__exit
                0x015e6cc0                sys_lseek
                0x015e6ce0                execve
                0x015e6d00                getppid
                0x015e6d10                lseek
                0x015e6d70                chdir
                0x015e6da0                _exit
                0x015e6db0                close
                0x015e6dc0                _execve
                0x015e6de0                fstat
                0x015e6e30                getpid
                0x015e6e40                isatty
                0x015e6eb0                kill
                0x015e6ed0                link
                0x015e6ef0                open
                0x015e6f40                read
                0x015e6fd0                sbrk
                0x015e7010                stat
                0x015e7060                times
                0x015e7070                unlink
                0x015e7090                wait
                0x015e70c0                waitpid
                0x015e70f0                write_
                0x015e7240                write
                0x015e7290                write2
                0x015e72b0                gettimeofday
                0x015e72e0                getdents
                0x015e7310                fork
                0x015e7320                pipe
                0x015e7350                vfork
                0x015e7360                dup
                0x015e7370                dup2
                0x015e7390                nanosleep
                0x015e73c0                getcwd
                0x015e7470                access
                0x015e74b0                ioctl
                0x015e74d0                tcgetattr
                0x015e74f0                tcsetattr
                0x015e7570                umask
                0x015e7580                sigaction
                0x015e75b0                lstat
                0x015e75c0                chmod
                0x015e75d0                chown
                0x015e75e0                fchown
                0x015e75f0                fchmod
                0x015e7600                getpwuid
                0x015e7610                utime
                0x015e7620                fpathconf
                0x015e7630                geteuid
                0x015e7640                sigprocmask
                0x015e7650                execvp
                0x015e7660                execl
                0x015e7670                execlp
                0x015e7680                ttyname
                0x015e76a0                mkdir
                0x015e76b0                glob
                0x015e76c0                globfree
                0x015e76d0                scandir
                0x015e76e0                readlink
                0x015e76f0                regfree
                0x015e7700                regcomp
                0x015e7710                regerror
                0x015e7720                regexec
                0x015e7730                rmdir
                0x015e7740                symlink
                0x015e7750                getwd
                0x015e7760                endpwent
                0x015e7770                getpwent
                0x015e7780                _longjmp
                0x015e7790                _setjmp
                0x015e77a0                _popen
                0x015e77b0                _pclose
                0x015e77c0                getline
                0x015e77d0                setpgid
                0x015e77e0                getuid
                0x015e77f0                getgid
                0x015e7800                getdtablesize
                0x015e7810                setresuid
                0x015e7820                setresgid
                0x015e7830                getpwnam
                0x015e7840                getlogin
 *fill*         0x015e7841        0xf 
 .text          0x015e7850     0x11fc /home/kosmick/chiffos/ChiffOS/libc/libc.a(lib_a-vfiprintf.o)
                0x015e7920                __sprint_r
                0x015e7950                _vfiprintf_r
                0x015e8a20                vfiprintf
 *fill*         0x015e8a4c        0x4 
 .text          0x015e8a50     0x20ec /home/kosmick/chiffos/ChiffOS/libc/libc.a(lib_a-vfprintf.o)
                0x015e8a50                _vfprintf_r
                0x015eab10                vfprintf
 *fill*         0x015eab3c        0x4 
 .text          0x015eab40       0xf4 /home/kosmick/chiffos/ChiffOS/libc/libc.a(lib_a-vsnprintf.o)
                0x015eab40                _vsnprintf_r
                0x015eac00                vsnprintf
 *fill*         0x015eac34        0xc 
 .text          0x015eac40       0x9c /home/kosmick/chiffos/ChiffOS/libc/libc.a(lib_a-vsprintf.o)
                0x015eac40                _vsprintf_r
                0x015eacb0                vsprintf
 *fill*         0x015eacdc        0x4 
 .text          0x015eace0      0x144 /home/kosmick/chiffos/ChiffOS/libc/libc.a(lib_a-wbuf.o)
                0x015eace0                __swbuf_r
                0x015eae00                __swbuf
 *fill*         0x015eae24        0xc 
 .text          0x015eae30       0x54 /home/kosmick/chiffos/ChiffOS/libc/libc.a(lib_a-writer.o)
                0x015eae30                _write_r
 *fill*         0x015eae84        0xc 
 .text          0x015eae90      0x139 /home/kosmick/chiffos/ChiffOS/libc/libc.a(lib_a-wsetup.o)
                0x015eae90                __swsetup_r
 *fill*         0x015eafc9        0x7 
 .text          0x015eafd0      0x138 /home/kosmick/chiffos/ChiffOS/libc/libc.a(lib_a-__call_atexit.o)
                0x015eafd0                __call_exitprocs
 *fill*         0x015eb108        0x8 
 .text          0x015eb110       0x1b /home/kosmick/chiffos/ChiffOS/libc/libc.a(lib_a-abort.o)
                0x015eb110                abort
 *fill*         0x015eb12b        0x5 
 .text          0x015eb130       0x44 /home/kosmick/chiffos/ChiffOS/libc/libc.a(lib_a-closer.o)
                0x015eb130                _close_r
 .text          0x015eb174        0x0 /home/kosmick/chiffos/ChiffOS/libc/libc.a(lib_a-ctype_.o)
 *fill*         0x015eb174        0xc 
 .text          0x015eb180     0x16f7 /home/kosmick/chiffos/ChiffOS/libc/libc.a(lib_a-dtoa.o)
                0x015eb390                _dtoa_r
 *fill*         0x015ec877        0x1 
 .text          0x015ec878        0x0 /home/kosmick/chiffos/ChiffOS/libc/libc.a(lib_a-environ.o)
 *fill*         0x015ec878        0x8 
 .text          0x015ec880       0x11 /home/kosmick/chiffos/ChiffOS/libc/libc.a(lib_a-envlock.o)
                0x015ec880                __env_lock
                0x015ec890                __env_unlock
 *fill*         0x015ec891        0xf 
 .text          0x015ec8a0        0x6 /home/kosmick/chiffos/ChiffOS/libc/libc.a(lib_a-errno.o)
                0x015ec8a0                __errno
 *fill*         0x015ec8a6        0xa 
 .text          0x015ec8b0       0xa5 /home/kosmick/chiffos/ChiffOS/libc/libc.a(lib_a-flags.o)
                0x015ec8b0                __sflags
 *fill*         0x015ec955        0xb 
 .text          0x015ec960      0x174 /home/kosmick/chiffos/ChiffOS/libc/libc.a(lib_a-fputwc.o)
                0x015ec960                _fputwc_r
                0x015eca90                fputwc
 *fill*         0x015ecad4        0xc 
 .text          0x015ecae0      0xa60 /home/kosmick/chiffos/ChiffOS/libc/libc.a(lib_a-gdtoa-gethex.o)
                0x015ecc20                __hexdig_init
                0x015ecc90                __gethex
 .text          0x015ed540      0x302 /home/kosmick/chiffos/ChiffOS/libc/libc.a(lib_a-gdtoa-hexnan.o)
                0x015ed540                __hexnan
 *fill*         0x015ed842        0xe 
 .text          0x015ed850       0x44 /home/kosmick/chiffos/ChiffOS/libc/libc.a(lib_a-isattyr.o)
                0x015ed850                _isatty_r
 *fill*         0x015ed894        0xc 
 .text          0x015ed8a0       0xf6 /home/kosmick/chiffos/ChiffOS/libc/libc.a(lib_a-locale.o)
                0x015ed8a0                _setlocale_r
                0x015ed910                __locale_charset
                0x015ed920                __locale_mb_cur_max
                0x015ed930                __locale_msgcharset
                0x015ed940                __locale_cjk_lang
                0x015ed950                _localeconv_r
                0x015ed960                setlocale
                0x015ed990                localeconv
 *fill*         0x015ed996        0xa 
 .text          0x015ed9a0       0x54 /home/kosmick/chiffos/ChiffOS/libc/libc.a(lib_a-lseekr.o)
                0x015ed9a0                _lseek_r
 *fill*         0x015ed9f4        0xc 
 .text          0x015eda00      0xf38 /home/kosmick/chiffos/ChiffOS/libc/libc.a(lib_a-mprec.o)
                0x015eda00                _Balloc
                0x015edaa0                _Bfree
                0x015edac0                __multadd
                0x015edbd0                __s2b
                0x015edce0                __hi0bits
                0x015edd50                __lo0bits
                0x015edde0                __i2b
                0x015ede10                __multiply
                0x015ee030                __pow5mult
                0x015ee150                __lshift
                0x015ee2a0                __mcmp
                0x015ee300                __mdiff
                0x015ee490                __ulp
                0x015ee520                __b2d
                0x015ee630                __d2b
                0x015ee760                __ratio
                0x015ee800                _mprec_log10
                0x015ee840                __copybits
                0x015ee8b0                __any_on
 *fill*         0x015ee938        0x8 
 .text          0x015ee940       0x54 /home/kosmick/chiffos/ChiffOS/libc/libc.a(lib_a-readr.o)
                0x015ee940                _read_r
 *fill*         0x015ee994        0xc 
 .text          0x015ee9a0       0x2f /home/kosmick/chiffos/ChiffOS/libc/libc.a(lib_a-s_copysign.o)
                0x015ee9a0                copysign
 *fill*         0x015ee9cf        0x1 
 .text          0x015ee9d0       0x12 /home/kosmick/chiffos/ChiffOS/libc/libc.a(lib_a-s_finite.o)
                0x015ee9d0                finite
 *fill*         0x015ee9e2        0xe 
 .text          0x015ee9f0       0x61 /home/kosmick/chiffos/ChiffOS/libc/libc.a(lib_a-s_fpclassify.o)
                0x015ee9f0                __fpclassifyd
 *fill*         0x015eea51        0xf 
 .text          0x015eea60        0x7 /home/kosmick/chiffos/ChiffOS/libc/libc.a(lib_a-sf_nan.o)
                0x015eea60                nanf
 *fill*         0x015eea67        0x9 
 .text          0x015eea70      0x29c /home/kosmick/chiffos/ChiffOS/libc/libc.a(lib_a-signal.o)
                0x015eea70                _init_signal_r
                0x015eead0                _signal_r
                0x015eeb30                _raise_r
                0x015eebe0                __sigtramp_r
                0x015eec80                raise
                0x015eeca0                signal
                0x015eecd0                _init_signal
                0x015eecf0                __sigtramp
 *fill*         0x015eed0c        0x4 
 .text          0x015eed10       0x55 /home/kosmick/chiffos/ChiffOS/libc/libc.a(lib_a-signalr.o)
                0x015eed10                _kill_r
                0x015eed60                _getpid_r
 *fill*         0x015eed65        0xb 
 .text          0x015eed70       0xff /home/kosmick/chiffos/ChiffOS/libc/libc.a(lib_a-sscanf.o)
                0x015eed70                sscanf
                0x015eedf0                _sscanf_r
 *fill*         0x015eee6f        0x1 
 .text          0x015eee70     0x1042 /home/kosmick/chiffos/ChiffOS/libc/libc.a(lib_a-svfiprintf.o)
                0x015eee70                __ssprint_r
                0x015ef070                _svfiprintf_r
 *fill*         0x015efeb2        0xe 
 .text          0x015efec0     0x130e /home/kosmick/chiffos/ChiffOS/libc/libc.a(lib_a-svfscanf.o)
                0x015efec0                __ssvfscanf_r
 *fill*         0x015f11ce        0x2 
 .text          0x015f11d0      0x11f /home/kosmick/chiffos/ChiffOS/libc/libc.a(lib_a-wcrtomb.o)
                0x015f11d0                _wcrtomb_r
                0x015f1260                wcrtomb
 *fill*         0x015f12ef        0x1 
 .text          0x015f12f0       0x79 /home/kosmick/chiffos/ChiffOS/libc/libc.a(lib_a-wctomb_r.o)
                0x015f12f0                __ascii_wctomb
                0x015f1330                _wctomb_r
 *fill*         0x015f1369        0x7 
 .text          0x015f1370       0x1e /home/kosmick/chiffos/ChiffOS/libc/libc.a(lib_a-iswspace.o)
                0x015f1370                iswspace
 *fill*         0x015f138e        0x2 
 .text          0x015f1390      0x147 /home/kosmick/chiffos/ChiffOS/libc/libc.a(lib_a-mbrtowc.o)
                0x015f1390                _mbrtowc_r
                0x015f1430                mbrtowc
 *fill*         0x015f14d7        0x9 
 .text          0x015f14e0       0xa1 /home/kosmick/chiffos/ChiffOS/libc/libc.a(lib_a-mbtowc_r.o)
                0x015f14e0                __ascii_mbtowc
                0x015f1540                _mbtowc_r
 *fill*         0x015f1581        0xf 
 .text          0x015f1590       0xa4 /home/kosmick/chiffos/ChiffOS/libc/libc.a(lib_a-sccl.o)
                0x015f1590                __sccl
 *fill*         0x015f1634        0xc 
 .text          0x015f1640      0x23c /home/kosmick/chiffos/ChiffOS/libc/libc.a(lib_a-strtoul.o)
                0x015f1640                _strtoul_r
                0x015f1850                strtoul
 *fill*         0x015f187c        0x4 
 .text          0x015f1880      0xe6b /home/kosmick/chiffos/ChiffOS/libc/libc.a(lib_a-svfiscanf.o)
                0x015f1880                _sungetc_r
                0x015f1960                __ssrefill_r
                0x015f19d0                _sfread_r
                0x015f1a90                __ssvfiscanf_r
 *fill*         0x015f26eb        0x5 
 .text          0x015f26f0      0x244 /home/kosmick/chiffos/ChiffOS/libc/libc.a(lib_a-ungetc.o)
                0x015f26f0                __submore
                0x015f27c0                _ungetc_r
                0x015f2910                ungetc
 *fill*         0x015f2934        0xc 
 .text          0x015f2940      0x21a /home/kosmick/chiffos/ChiffOS/libc/libm.a(lib_a-s_atan.o)
                0x015f2940                atan
 *fill*         0x015f2b5a        0x6 
 .text          0x015f2b60      0x109 /home/kosmick/chiffos/ChiffOS/libc/libm.a(lib_a-s_cos.o)
                0x015f2b60                cos
 *fill*         0x015f2c69        0x7 
 .text          0x015f2c70       0x21 /home/kosmick/chiffos/ChiffOS/libc/libm.a(lib_a-s_fabs.o)
                0x015f2c70                fabs
 *fill*         0x015f2c91        0xf 
 .text          0x015f2ca0      0x1ce /home/kosmick/chiffos/ChiffOS/libc/libm.a(lib_a-s_floor.o)
                0x015f2ca0                floor
 *fill*         0x015f2e6e        0x2 
 .text          0x015f2e70      0x121 /home/kosmick/chiffos/ChiffOS/libc/libm.a(lib_a-s_sin.o)
                0x015f2e70                sin
 *fill*         0x015f2f91        0xf 
 .text          0x015f2fa0       0xed /home/kosmick/chiffos/ChiffOS/libc/libm.a(lib_a-w_asin.o)
                0x015f2fa0                asin
 *fill*         0x015f308d        0x3 
 .text          0x015f3090      0x169 /home/kosmick/chiffos/ChiffOS/libc/libm.a(lib_a-w_exp.o)
                0x015f3090                exp
 *fill*         0x015f31f9        0x7 
 .text          0x015f3200      0x170 /home/kosmick/chiffos/ChiffOS/libc/libm.a(lib_a-w_log.o)
                0x015f3200                log
 .text          0x015f3370      0x4f1 /home/kosmick/chiffos/ChiffOS/libc/libm.a(lib_a-w_pow.o)
                0x015f3370                pow
 *fill*         0x015f3861        0xf 
 .text          0x015f3870       0xed /home/kosmick/chiffos/ChiffOS/libc/libm.a(lib_a-w_sqrt.o)
                0x015f3870                sqrt
 *fill*         0x015f395d        0x3 
 .text          0x015f3960      0x22e /home/kosmick/chiffos/ChiffOS/libc/libm.a(lib_a-e_asin.o)
                0x015f3960                __ieee754_asin
 *fill*         0x015f3b8e        0x2 
 .text          0x015f3b90      0x266 /home/kosmick/chiffos/ChiffOS/libc/libm.a(lib_a-e_exp.o)
                0x015f3b90                __ieee754_exp
 *fill*         0x015f3df6        0xa 
 .text          0x015f3e00      0x28f /home/kosmick/chiffos/ChiffOS/libc/libm.a(lib_a-e_log.o)
                0x015f3e00                __ieee754_log
 *fill*         0x015f408f        0x1 
 .text          0x015f4090      0x79d /home/kosmick/chiffos/ChiffOS/libc/libm.a(lib_a-e_pow.o)
                0x015f4090                __ieee754_pow
 *fill*         0x015f482d        0x3 
 .text          0x015f4830      0x3e3 /home/kosmick/chiffos/ChiffOS/libc/libm.a(lib_a-e_rem_pio2.o)
                0x015f4830                __ieee754_rem_pio2
 *fill*         0x015f4c13        0xd 
 .text          0x015f4c20      0x265 /home/kosmick/chiffos/ChiffOS/libc/libm.a(lib_a-e_sqrt.o)
                0x015f4c20                __ieee754_sqrt
 *fill*         0x015f4e85        0xb 
 .text          0x015f4e90      0x14a /home/kosmick/chiffos/ChiffOS/libc/libm.a(lib_a-k_cos.o)
                0x015f4e90                __kernel_cos
 *fill*         0x015f4fda        0x6 
 .text          0x015f4fe0      0x82e /home/kosmick/chiffos/ChiffOS/libc/libm.a(lib_a-k_rem_pio2.o)
                0x015f4fe0                __kernel_rem_pio2
 *fill*         0x015f580e        0x2 
 .text          0x015f5810       0xca /home/kosmick/chiffos/ChiffOS/libc/libm.a(lib_a-k_sin.o)
                0x015f5810                __kernel_sin
 *fill*         0x015f58da        0x2 
 .text          0x015f58dc        0x0 /home/kosmick/chiffos/ChiffOS/libc/libm.a(lib_a-s_lib_ver.o)
 *fill*         0x015f58dc        0x4 
 .text          0x015f58e0        0x3 /home/kosmick/chiffos/ChiffOS/libc/libm.a(lib_a-s_matherr.o)
                0x015f58e0                matherr
 *fill*         0x015f58e3        0xd 
 .text          0x015f58f0       0x18 /home/kosmick/chiffos/ChiffOS/libc/libm.a(lib_a-s_nan.o)
                0x015f58f0                nan
 *fill*         0x015f5908        0x8 
 .text          0x015f5910      0x187 /home/kosmick/chiffos/ChiffOS/libc/libm.a(lib_a-s_rint.o)
                0x015f5910                rint

.eh_frame       0x015f5a98    0x3aa9c
 .eh_frame      0x015f5a98      0x118 ./glxgear.o
 .eh_frame      0x015f5bb0     0x1250 /home/kosmick/chiffos/ChiffOS/libc/libOSMesa32.a(osmesa.o)
                               0x1268 (size before relaxing)
 .eh_frame      0x015f6e00      0x424 /home/kosmick/chiffos/ChiffOS/libc/libOSMesa32.a(context.o)
                                0x43c (size before relaxing)
 .eh_frame      0x015f7224       0x40 /home/kosmick/chiffos/ChiffOS/libc/libOSMesa32.a(cpuinfo.o)
                                 0x58 (size before relaxing)
 .eh_frame      0x015f7264      0x144 /home/kosmick/chiffos/ChiffOS/libc/libOSMesa32.a(debug.o)
                                0x15c (size before relaxing)
 .eh_frame      0x015f73a8       0xa0 /home/kosmick/chiffos/ChiffOS/libc/libOSMesa32.a(depth.o)
                                 0xb8 (size before relaxing)
 .eh_frame      0x015f7448     0x3668 /home/kosmick/chiffos/ChiffOS/libc/libOSMesa32.a(dlist.o)
                               0x3680 (size before relaxing)
 .eh_frame      0x015faab0       0xa0 /home/kosmick/chiffos/ChiffOS/libc/libOSMesa32.a(enums.o)
                                 0xb8 (size before relaxing)
 .eh_frame      0x015fab50      0x300 /home/kosmick/chiffos/ChiffOS/libc/libOSMesa32.a(eval.o)
                                0x318 (size before relaxing)
 .eh_frame      0x015fae50      0x1a0 /home/kosmick/chiffos/ChiffOS/libc/libOSMesa32.a(extensions.o)
                                0x1b8 (size before relaxing)
 .eh_frame      0x015faff0      0x57c /home/kosmick/chiffos/ChiffOS/libc/libOSMesa32.a(fbobject.o)
                                0x594 (size before relaxing)
 .eh_frame      0x015fb56c      0x1c0 /home/kosmick/chiffos/ChiffOS/libc/libOSMesa32.a(feedback.o)
                                0x1d8 (size before relaxing)
 .eh_frame      0x015fb72c       0xa0 /home/kosmick/chiffos/ChiffOS/libc/libOSMesa32.a(fog.o)
                                 0xb8 (size before relaxing)
 .eh_frame      0x015fb7cc      0x2b0 /home/kosmick/chiffos/ChiffOS/libc/libOSMesa32.a(framebuffer.o)
                                0x2c8 (size before relaxing)
 .eh_frame      0x015fba7c       0x80 /home/kosmick/chiffos/ChiffOS/libc/libOSMesa32.a(getstring.o)
                                 0x98 (size before relaxing)
 .eh_frame      0x015fbafc      0x160 /home/kosmick/chiffos/ChiffOS/libc/libOSMesa32.a(hash.o)
                                0x178 (size before relaxing)
 .eh_frame      0x015fbc5c       0x40 /home/kosmick/chiffos/ChiffOS/libc/libOSMesa32.a(hint.o)
                                 0x58 (size before relaxing)
 .eh_frame      0x015fbc9c      0x1c8 /home/kosmick/chiffos/ChiffOS/libc/libOSMesa32.a(histogram.o)
                                0x1e0 (size before relaxing)
 .eh_frame      0x015fbe64      0x7cc /home/kosmick/chiffos/ChiffOS/libc/libOSMesa32.a(image.o)
                                0x7e4 (size before relaxing)
 .eh_frame      0x015fc630      0x69c /home/kosmick/chiffos/ChiffOS/libc/libOSMesa32.a(imports.o)
                                0x6b4 (size before relaxing)
 .eh_frame      0x015fcccc      0x460 /home/kosmick/chiffos/ChiffOS/libc/libOSMesa32.a(light.o)
                                0x478 (size before relaxing)
 .eh_frame      0x015fd12c       0x60 /home/kosmick/chiffos/ChiffOS/libc/libOSMesa32.a(lines.o)
                                 0x78 (size before relaxing)
 .eh_frame      0x015fd18c      0x384 /home/kosmick/chiffos/ChiffOS/libc/libOSMesa32.a(matrix.o)
                                0x39c (size before relaxing)
 .eh_frame      0x015fd510       0x40 /home/kosmick/chiffos/ChiffOS/libc/libOSMesa32.a(multisample.o)
                                 0x58 (size before relaxing)
 .eh_frame      0x015fd550      0x200 /home/kosmick/chiffos/ChiffOS/libc/libOSMesa32.a(pixel.o)
                                0x218 (size before relaxing)
 .eh_frame      0x015fd750       0x60 /home/kosmick/chiffos/ChiffOS/libc/libOSMesa32.a(pixelstore.o)
                                 0x78 (size before relaxing)
 .eh_frame      0x015fd7b0       0xc0 /home/kosmick/chiffos/ChiffOS/libc/libOSMesa32.a(points.o)
                                 0xd8 (size before relaxing)
 .eh_frame      0x015fd870      0x120 /home/kosmick/chiffos/ChiffOS/libc/libOSMesa32.a(polygon.o)
                                0x138 (size before relaxing)
 .eh_frame      0x015fd990      0x280 /home/kosmick/chiffos/ChiffOS/libc/libOSMesa32.a(queryobj.o)
                                0x298 (size before relaxing)
 .eh_frame      0x015fdc10      0x698 /home/kosmick/chiffos/ChiffOS/libc/libOSMesa32.a(rastpos.o)
                                0x6b0 (size before relaxing)
 .eh_frame      0x015fe2a8      0x9dc /home/kosmick/chiffos/ChiffOS/libc/libOSMesa32.a(renderbuffer.o)
                                0x9f4 (size before relaxing)
 .eh_frame      0x015fec84       0x60 /home/kosmick/chiffos/ChiffOS/libc/libOSMesa32.a(scissor.o)
                                 0x78 (size before relaxing)
 .eh_frame      0x015fece4      0x1c0 /home/kosmick/chiffos/ChiffOS/libc/libOSMesa32.a(shared.o)
                                0x1d8 (size before relaxing)
 .eh_frame      0x015feea4      0x1ec /home/kosmick/chiffos/ChiffOS/libc/libOSMesa32.a(state.o)
                                0x204 (size before relaxing)
 .eh_frame      0x015ff090      0x1a0 /home/kosmick/chiffos/ChiffOS/libc/libOSMesa32.a(stencil.o)
                                0x1b8 (size before relaxing)
 .eh_frame      0x015ff230      0x280 /home/kosmick/chiffos/ChiffOS/libc/libOSMesa32.a(texcompress_s3tc.o)
                                0x298 (size before relaxing)
 .eh_frame      0x015ff4b0      0x378 /home/kosmick/chiffos/ChiffOS/libc/libOSMesa32.a(texcompress_fxt1.o)
                                0x390 (size before relaxing)
 .eh_frame      0x015ff828      0x56c /home/kosmick/chiffos/ChiffOS/libc/libOSMesa32.a(texenvprogram.o)
                                0x584 (size before relaxing)
 .eh_frame      0x015ffd94      0x7c8 /home/kosmick/chiffos/ChiffOS/libc/libOSMesa32.a(teximage.o)
                                0x7e0 (size before relaxing)
 .eh_frame      0x0160055c      0x2f0 /home/kosmick/chiffos/ChiffOS/libc/libOSMesa32.a(texobj.o)
                                0x308 (size before relaxing)
 .eh_frame      0x0160084c      0x200 /home/kosmick/chiffos/ChiffOS/libc/libOSMesa32.a(texstate.o)
                                0x218 (size before relaxing)
 .eh_frame      0x01600a4c      0x838 /home/kosmick/chiffos/ChiffOS/libc/libOSMesa32.a(texstore.o)
                                0x850 (size before relaxing)
 .eh_frame      0x01601284      0x370 /home/kosmick/chiffos/ChiffOS/libc/libOSMesa32.a(varray.o)
                                0x388 (size before relaxing)
 .eh_frame      0x016015f4       0xc0 /home/kosmick/chiffos/ChiffOS/libc/libOSMesa32.a(viewport.o)
                                 0xd8 (size before relaxing)
 .eh_frame      0x016016b4      0x940 /home/kosmick/chiffos/ChiffOS/libc/libOSMesa32.a(vtxfmt.o)
                                0x958 (size before relaxing)
 .eh_frame      0x01601ff4      0x4b0 /home/kosmick/chiffos/ChiffOS/libc/libOSMesa32.a(m_matrix.o)
                                0x4c8 (size before relaxing)
 .eh_frame      0x016024a4      0x120 /home/kosmick/chiffos/ChiffOS/libc/libOSMesa32.a(vbo_context.o)
                                0x138 (size before relaxing)
 .eh_frame      0x016025c4       0x80 /home/kosmick/chiffos/ChiffOS/libc/libOSMesa32.a(vbo_exec.o)
                                 0x98 (size before relaxing)
 .eh_frame      0x01602644      0xa3c /home/kosmick/chiffos/ChiffOS/libc/libOSMesa32.a(vbo_exec_api.o)
                                0xa54 (size before relaxing)
 .eh_frame      0x01603080      0x1d8 /home/kosmick/chiffos/ChiffOS/libc/libOSMesa32.a(vbo_exec_array.o)
                                0x1f0 (size before relaxing)
 .eh_frame      0x01603258      0x134 /home/kosmick/chiffos/ChiffOS/libc/libOSMesa32.a(vbo_exec_draw.o)
                                0x14c (size before relaxing)
 .eh_frame      0x0160338c       0xe8 /home/kosmick/chiffos/ChiffOS/libc/libOSMesa32.a(vbo_exec_eval.o)
                                0x100 (size before relaxing)
 .eh_frame      0x01603474       0xa0 /home/kosmick/chiffos/ChiffOS/libc/libOSMesa32.a(vbo_save.o)
                                 0xb8 (size before relaxing)
 .eh_frame      0x01603514      0xce0 /home/kosmick/chiffos/ChiffOS/libc/libOSMesa32.a(vbo_save_api.o)
                                0xcf8 (size before relaxing)
 .eh_frame      0x016041f4       0xf0 /home/kosmick/chiffos/ChiffOS/libc/libOSMesa32.a(vbo_save_draw.o)
                                0x108 (size before relaxing)
 .eh_frame      0x016042e4       0xf0 /home/kosmick/chiffos/ChiffOS/libc/libOSMesa32.a(vbo_save_loopback.o)
                                0x108 (size before relaxing)
 .eh_frame      0x016043d4       0xec /home/kosmick/chiffos/ChiffOS/libc/libOSMesa32.a(t_context.o)
                                0x104 (size before relaxing)
 .eh_frame      0x016044c0       0xa8 /home/kosmick/chiffos/ChiffOS/libc/libOSMesa32.a(t_pipeline.o)
                                 0xc0 (size before relaxing)
 .eh_frame      0x01604568      0x148 /home/kosmick/chiffos/ChiffOS/libc/libOSMesa32.a(t_draw.o)
                                0x160 (size before relaxing)
 .eh_frame      0x016046b0      0x1c0 /home/kosmick/chiffos/ChiffOS/libc/libOSMesa32.a(t_vb_program.o)
                                0x1d8 (size before relaxing)
 .eh_frame      0x01604870      0x78c /home/kosmick/chiffos/ChiffOS/libc/libOSMesa32.a(t_vb_render.o)
                                0x7a4 (size before relaxing)
 .eh_frame      0x01604ffc      0x1b0 /home/kosmick/chiffos/ChiffOS/libc/libOSMesa32.a(t_vb_texgen.o)
                                0x1c8 (size before relaxing)
 .eh_frame      0x016051ac       0x6c /home/kosmick/chiffos/ChiffOS/libc/libOSMesa32.a(t_vb_texmat.o)
                                 0x84 (size before relaxing)
 .eh_frame      0x01605218       0xe8 /home/kosmick/chiffos/ChiffOS/libc/libOSMesa32.a(t_vb_vertex.o)
                                0x100 (size before relaxing)
 .eh_frame      0x01605300       0xa8 /home/kosmick/chiffos/ChiffOS/libc/libOSMesa32.a(t_vb_fog.o)
                                 0xc0 (size before relaxing)
 .eh_frame      0x016053a8      0x474 /home/kosmick/chiffos/ChiffOS/libc/libOSMesa32.a(t_vb_light.o)
                                0x48c (size before relaxing)
 .eh_frame      0x0160581c       0x88 /home/kosmick/chiffos/ChiffOS/libc/libOSMesa32.a(t_vb_normals.o)
                                 0xa0 (size before relaxing)
 .eh_frame      0x016058a4       0x60 /home/kosmick/chiffos/ChiffOS/libc/libOSMesa32.a(t_vb_points.o)
                                 0x78 (size before relaxing)
 .eh_frame      0x01605904       0x20 /home/kosmick/chiffos/ChiffOS/libc/libOSMesa32.a(t_vp_build.o)
                                 0x38 (size before relaxing)
 .eh_frame      0x01605924      0x304 /home/kosmick/chiffos/ChiffOS/libc/libOSMesa32.a(t_vertex.o)
                                0x31c (size before relaxing)
 .eh_frame      0x01605c28      0x9f8 /home/kosmick/chiffos/ChiffOS/libc/libOSMesa32.a(t_vertex_generic.o)
                                0xa10 (size before relaxing)
 .eh_frame      0x01606620      0x3e0 /home/kosmick/chiffos/ChiffOS/libc/libOSMesa32.a(arbprogram.o)
                                0x3f8 (size before relaxing)
 .eh_frame      0x01606a00      0x2c8 /home/kosmick/chiffos/ChiffOS/libc/libOSMesa32.a(atifragshader.o)
                                0x2e0 (size before relaxing)
 .eh_frame      0x01606cc8      0x2c4 /home/kosmick/chiffos/ChiffOS/libc/libOSMesa32.a(nvprogram.o)
                                0x2dc (size before relaxing)
 .eh_frame      0x01606f8c      0x3d0 /home/kosmick/chiffos/ChiffOS/libc/libOSMesa32.a(nvvertparse.o)
                                0x3e8 (size before relaxing)
 .eh_frame      0x0160735c      0x2f0 /home/kosmick/chiffos/ChiffOS/libc/libOSMesa32.a(program.o)
                                0x308 (size before relaxing)
 .eh_frame      0x0160764c       0xec /home/kosmick/chiffos/ChiffOS/libc/libOSMesa32.a(prog_cache.o)
                                0x104 (size before relaxing)
 .eh_frame      0x01607738      0x1f0 /home/kosmick/chiffos/ChiffOS/libc/libOSMesa32.a(prog_execute.o)
                                0x208 (size before relaxing)
 .eh_frame      0x01607928      0x14c /home/kosmick/chiffos/ChiffOS/libc/libOSMesa32.a(prog_instruction.o)
                                0x164 (size before relaxing)
 .eh_frame      0x01607a74      0x114 /home/kosmick/chiffos/ChiffOS/libc/libOSMesa32.a(prog_noise.o)
                                0x12c (size before relaxing)
 .eh_frame      0x01607b88      0x28c /home/kosmick/chiffos/ChiffOS/libc/libOSMesa32.a(prog_parameter.o)
                                0x2a4 (size before relaxing)
 .eh_frame      0x01607e14      0x17c /home/kosmick/chiffos/ChiffOS/libc/libOSMesa32.a(prog_statevars.o)
                                0x194 (size before relaxing)
 .eh_frame      0x01607f90      0x114 /home/kosmick/chiffos/ChiffOS/libc/libOSMesa32.a(programopt.o)
                                0x12c (size before relaxing)
 .eh_frame      0x016080a4      0x7f0 /home/kosmick/chiffos/ChiffOS/libc/libOSMesa32.a(shader_api.o)
                                0x808 (size before relaxing)
 .eh_frame      0x01608894      0x4b8 /home/kosmick/chiffos/ChiffOS/libc/libOSMesa32.a(s_context.o)
                                0x4d0 (size before relaxing)
 .eh_frame      0x01608d4c      0x184 /home/kosmick/chiffos/ChiffOS/libc/libOSMesa32.a(s_lines.o)
                                0x19c (size before relaxing)
 .eh_frame      0x01608ed0      0x158 /home/kosmick/chiffos/ChiffOS/libc/libOSMesa32.a(s_points.o)
                                0x170 (size before relaxing)
 .eh_frame      0x01609028      0x398 /home/kosmick/chiffos/ChiffOS/libc/libOSMesa32.a(s_span.o)
                                0x3b0 (size before relaxing)
 .eh_frame      0x016093c0      0x174 /home/kosmick/chiffos/ChiffOS/libc/libOSMesa32.a(s_stencil.o)
                                0x18c (size before relaxing)
 .eh_frame      0x01609534       0xc0 /home/kosmick/chiffos/ChiffOS/libc/libOSMesa32.a(s_texcombine.o)
                                 0xd8 (size before relaxing)
 .eh_frame      0x016095f4      0xb54 /home/kosmick/chiffos/ChiffOS/libc/libOSMesa32.a(s_texfilter.o)
                                0xb6c (size before relaxing)
 .eh_frame      0x0160a148      0x1e0 /home/kosmick/chiffos/ChiffOS/libc/libOSMesa32.a(s_triangle.o)
                                0x1f8 (size before relaxing)
 .eh_frame      0x0160a328      0x130 /home/kosmick/chiffos/ChiffOS/libc/libOSMesa32.a(ss_context.o)
                                0x148 (size before relaxing)
 .eh_frame      0x0160a458      0x6e0 /home/kosmick/chiffos/ChiffOS/libc/libOSMesa32.a(ss_triangle.o)
                                0x6f8 (size before relaxing)
 .eh_frame      0x0160ab38       0x4c /home/kosmick/chiffos/ChiffOS/libc/libOSMesa32.a(driverfuncs.o)
                                 0x64 (size before relaxing)
 .eh_frame      0x0160ab84      0x694 /home/kosmick/chiffos/ChiffOS/libc/libOSMesa32.a(slang_compile.o)
                                0x6ac (size before relaxing)
 .eh_frame      0x0160b218      0x12c /home/kosmick/chiffos/ChiffOS/libc/libOSMesa32.a(slang_compile_function.o)
                                0x144 (size before relaxing)
 .eh_frame      0x0160b344      0x1e8 /home/kosmick/chiffos/ChiffOS/libc/libOSMesa32.a(slang_compile_operation.o)
                                0x200 (size before relaxing)
 .eh_frame      0x0160b52c      0x100 /home/kosmick/chiffos/ChiffOS/libc/libOSMesa32.a(slang_compile_struct.o)
                                0x118 (size before relaxing)
 .eh_frame      0x0160b62c      0x17c /home/kosmick/chiffos/ChiffOS/libc/libOSMesa32.a(slang_compile_variable.o)
                                0x194 (size before relaxing)
 .eh_frame      0x0160b7a8      0x1e8 /home/kosmick/chiffos/ChiffOS/libc/libOSMesa32.a(slang_link.o)
                                0x200 (size before relaxing)
 .eh_frame      0x0160b990       0xe0 /home/kosmick/chiffos/ChiffOS/libc/libOSMesa32.a(slang_log.o)
                                 0xf8 (size before relaxing)
 .eh_frame      0x0160ba70       0xc0 /home/kosmick/chiffos/ChiffOS/libc/libOSMesa32.a(slang_mem.o)
                                 0xd8 (size before relaxing)
 .eh_frame      0x0160bb30      0x398 /home/kosmick/chiffos/ChiffOS/libc/libOSMesa32.a(slang_preprocess.o)
                                0x3b0 (size before relaxing)
 .eh_frame      0x0160bec8       0xb0 /home/kosmick/chiffos/ChiffOS/libc/libOSMesa32.a(slang_simplify.o)
                                 0xc8 (size before relaxing)
 .eh_frame      0x0160bf78      0x160 /home/kosmick/chiffos/ChiffOS/libc/libOSMesa32.a(slang_storage.o)
                                0x178 (size before relaxing)
 .eh_frame      0x0160c0d8      0x338 /home/kosmick/chiffos/ChiffOS/libc/libOSMesa32.a(slang_typeinfo.o)
                                0x350 (size before relaxing)
 .eh_frame      0x0160c410      0x188 /home/kosmick/chiffos/ChiffOS/libc/libOSMesa32.a(slang_vartable.o)
                                0x1a0 (size before relaxing)
 .eh_frame      0x0160c598      0x1cc /home/kosmick/chiffos/ChiffOS/libc/libOSMesa32.a(slang_utility.o)
                                0x1e4 (size before relaxing)
 .eh_frame      0x0160c764     0x86b8 /home/kosmick/chiffos/ChiffOS/libc/libOSMesa32.a(dispatch.o)
                               0x86d0 (size before relaxing)
 .eh_frame      0x01614e1c     0x8768 /home/kosmick/chiffos/ChiffOS/libc/libOSMesa32.a(glapi.o)
                               0x8780 (size before relaxing)
 .eh_frame      0x0161d584      0x18c /home/kosmick/chiffos/ChiffOS/libc/libOSMesa32.a(glapi_getproc.o)
                                0x1a4 (size before relaxing)
 .eh_frame      0x0161d710      0xf18 /home/kosmick/chiffos/ChiffOS/libc/libOSMesa32.a(api_arrayelt.o)
                                0xf30 (size before relaxing)
 .eh_frame      0x0161e628       0x20 /home/kosmick/chiffos/ChiffOS/libc/libOSMesa32.a(api_exec.o)
                                 0x38 (size before relaxing)
 .eh_frame      0x0161e648     0x19f8 /home/kosmick/chiffos/ChiffOS/libc/libOSMesa32.a(api_loopback.o)
                               0x1a10 (size before relaxing)
 .eh_frame      0x01620040      0x860 /home/kosmick/chiffos/ChiffOS/libc/libOSMesa32.a(api_noop.o)
                                0x878 (size before relaxing)
 .eh_frame      0x016208a0       0xa0 /home/kosmick/chiffos/ChiffOS/libc/libOSMesa32.a(api_validate.o)
                                 0xb8 (size before relaxing)
 .eh_frame      0x01620940       0x60 /home/kosmick/chiffos/ChiffOS/libc/libOSMesa32.a(accum.o)
                                 0x78 (size before relaxing)
 .eh_frame      0x016209a0      0x184 /home/kosmick/chiffos/ChiffOS/libc/libOSMesa32.a(attrib.o)
                                0x19c (size before relaxing)
 .eh_frame      0x01620b24      0x1a0 /home/kosmick/chiffos/ChiffOS/libc/libOSMesa32.a(arrayobj.o)
                                0x1b8 (size before relaxing)
 .eh_frame      0x01620cc4      0x18c /home/kosmick/chiffos/ChiffOS/libc/libOSMesa32.a(blend.o)
                                0x1a4 (size before relaxing)
 .eh_frame      0x01620e50      0x448 /home/kosmick/chiffos/ChiffOS/libc/libOSMesa32.a(bufferobj.o)
                                0x460 (size before relaxing)
 .eh_frame      0x01621298      0x108 /home/kosmick/chiffos/ChiffOS/libc/libOSMesa32.a(buffers.o)
                                0x120 (size before relaxing)
 .eh_frame      0x016213a0       0x60 /home/kosmick/chiffos/ChiffOS/libc/libOSMesa32.a(clear.o)
                                 0x78 (size before relaxing)
 .eh_frame      0x01621400       0x88 /home/kosmick/chiffos/ChiffOS/libc/libOSMesa32.a(clip.o)
                                 0xa0 (size before relaxing)
 .eh_frame      0x01621488      0x250 /home/kosmick/chiffos/ChiffOS/libc/libOSMesa32.a(colortab.o)
                                0x268 (size before relaxing)
 .eh_frame      0x016216d8      0x3bc /home/kosmick/chiffos/ChiffOS/libc/libOSMesa32.a(convolve.o)
                                0x3d4 (size before relaxing)
 .eh_frame      0x01621a94      0x2a0 /home/kosmick/chiffos/ChiffOS/libc/libOSMesa32.a(depthstencil.o)
                                0x2b8 (size before relaxing)
 .eh_frame      0x01621d34       0x60 /home/kosmick/chiffos/ChiffOS/libc/libOSMesa32.a(dlopen.o)
                                 0x78 (size before relaxing)
 .eh_frame      0x01621d94       0xb8 /home/kosmick/chiffos/ChiffOS/libc/libOSMesa32.a(drawpix.o)
                                 0xd0 (size before relaxing)
 .eh_frame      0x01621e4c      0x154 /home/kosmick/chiffos/ChiffOS/libc/libOSMesa32.a(enable.o)
                                0x16c (size before relaxing)
 .eh_frame      0x01621fa0       0x40 /home/kosmick/chiffos/ChiffOS/libc/libOSMesa32.a(execmem.o)
                                 0x58 (size before relaxing)
 .eh_frame      0x01621fe0      0x6a4 /home/kosmick/chiffos/ChiffOS/libc/libOSMesa32.a(ffvertex_prog.o)
                                0x6bc (size before relaxing)
 .eh_frame      0x01622684       0x98 /home/kosmick/chiffos/ChiffOS/libc/libOSMesa32.a(get.o)
                                 0xb0 (size before relaxing)
 .eh_frame      0x0162271c      0x1e4 /home/kosmick/chiffos/ChiffOS/libc/libOSMesa32.a(mipmap.o)
                                0x1fc (size before relaxing)
 .eh_frame      0x01622900      0x368 /home/kosmick/chiffos/ChiffOS/libc/libOSMesa32.a(rbadaptors.o)
                                0x380 (size before relaxing)
 .eh_frame      0x01622c68       0x40 /home/kosmick/chiffos/ChiffOS/libc/libOSMesa32.a(readpix.o)
                                 0x58 (size before relaxing)
 .eh_frame      0x01622ca8      0x7c8 /home/kosmick/chiffos/ChiffOS/libc/libOSMesa32.a(shaders.o)
                                0x7e0 (size before relaxing)
 .eh_frame      0x01623470       0xa0 /home/kosmick/chiffos/ChiffOS/libc/libOSMesa32.a(texcompress.o)
                                 0xb8 (size before relaxing)
 .eh_frame      0x01623510      0x230 /home/kosmick/chiffos/ChiffOS/libc/libOSMesa32.a(texenv.o)
                                0x248 (size before relaxing)
 .eh_frame      0x01623740     0x1da0 /home/kosmick/chiffos/ChiffOS/libc/libOSMesa32.a(texformat.o)
                               0x1db8 (size before relaxing)
 .eh_frame      0x016254e0      0x140 /home/kosmick/chiffos/ChiffOS/libc/libOSMesa32.a(texgen.o)
                                0x158 (size before relaxing)
 .eh_frame      0x01625620       0xb8 /home/kosmick/chiffos/ChiffOS/libc/libOSMesa32.a(texgetimage.o)
                                 0xd0 (size before relaxing)
 .eh_frame      0x016256d8      0x24c /home/kosmick/chiffos/ChiffOS/libc/libOSMesa32.a(texparam.o)
                                0x264 (size before relaxing)
 .eh_frame      0x01625924      0x1cc /home/kosmick/chiffos/ChiffOS/libc/libOSMesa32.a(texrender.o)
                                0x1e4 (size before relaxing)
 .eh_frame      0x01625af0       0x80 /home/kosmick/chiffos/ChiffOS/libc/libOSMesa32.a(m_eval.o)
                                 0x98 (size before relaxing)
 .eh_frame      0x01625b70     0x1420 /home/kosmick/chiffos/ChiffOS/libc/libOSMesa32.a(m_translate.o)
                               0x1438 (size before relaxing)
 .eh_frame      0x01626f90       0xa8 /home/kosmick/chiffos/ChiffOS/libc/libOSMesa32.a(m_vector.o)
                                 0xc0 (size before relaxing)
 .eh_frame      0x01627038      0x830 /home/kosmick/chiffos/ChiffOS/libc/libOSMesa32.a(m_xform.o)
                                0x848 (size before relaxing)
 .eh_frame      0x01627868       0xb0 /home/kosmick/chiffos/ChiffOS/libc/libOSMesa32.a(vbo_rebase.o)
                                 0xc8 (size before relaxing)
 .eh_frame      0x01627918       0x40 /home/kosmick/chiffos/ChiffOS/libc/libOSMesa32.a(vbo_split.o)
                                 0x58 (size before relaxing)
 .eh_frame      0x01627958      0x184 /home/kosmick/chiffos/ChiffOS/libc/libOSMesa32.a(vbo_split_copy.o)
                                0x19c (size before relaxing)
 .eh_frame      0x01627adc       0xbc /home/kosmick/chiffos/ChiffOS/libc/libOSMesa32.a(vbo_split_inplace.o)
                                 0xd4 (size before relaxing)
 .eh_frame      0x01627b98       0xcc /home/kosmick/chiffos/ChiffOS/libc/libOSMesa32.a(t_rasterpos.o)
                                 0xe4 (size before relaxing)
 .eh_frame      0x01627c64      0x77c /home/kosmick/chiffos/ChiffOS/libc/libOSMesa32.a(arbprogparse.o)
                                0x794 (size before relaxing)
 .eh_frame      0x016283e0      0xd80 /home/kosmick/chiffos/ChiffOS/libc/libOSMesa32.a(grammar_mesa.o)
                                0xd98 (size before relaxing)
 .eh_frame      0x01629160      0x398 /home/kosmick/chiffos/ChiffOS/libc/libOSMesa32.a(nvfragparse.o)
                                0x3b0 (size before relaxing)
 .eh_frame      0x016294f8      0x210 /home/kosmick/chiffos/ChiffOS/libc/libOSMesa32.a(prog_optimize.o)
                                0x228 (size before relaxing)
 .eh_frame      0x01629708      0x328 /home/kosmick/chiffos/ChiffOS/libc/libOSMesa32.a(prog_print.o)
                                0x340 (size before relaxing)
 .eh_frame      0x01629a30       0xc4 /home/kosmick/chiffos/ChiffOS/libc/libOSMesa32.a(prog_uniform.o)
                                 0xdc (size before relaxing)
 .eh_frame      0x01629af4      0x2b8 /home/kosmick/chiffos/ChiffOS/libc/libOSMesa32.a(s_aaline.o)
                                0x2d0 (size before relaxing)
 .eh_frame      0x01629dac      0x1d8 /home/kosmick/chiffos/ChiffOS/libc/libOSMesa32.a(s_aatriangle.o)
                                0x1f0 (size before relaxing)
 .eh_frame      0x01629f84      0x1a8 /home/kosmick/chiffos/ChiffOS/libc/libOSMesa32.a(s_accum.o)
                                0x1c0 (size before relaxing)
 .eh_frame      0x0162a12c       0x28 /home/kosmick/chiffos/ChiffOS/libc/libOSMesa32.a(s_alpha.o)
                                 0x40 (size before relaxing)
 .eh_frame      0x0162a154      0x1b8 /home/kosmick/chiffos/ChiffOS/libc/libOSMesa32.a(s_atifragshader.o)
                                0x1d0 (size before relaxing)
 .eh_frame      0x0162a30c       0x80 /home/kosmick/chiffos/ChiffOS/libc/libOSMesa32.a(s_bitmap.o)
                                 0x98 (size before relaxing)
 .eh_frame      0x0162a38c      0x1f0 /home/kosmick/chiffos/ChiffOS/libc/libOSMesa32.a(s_blend.o)
                                0x208 (size before relaxing)
 .eh_frame      0x0162a57c      0x1f8 /home/kosmick/chiffos/ChiffOS/libc/libOSMesa32.a(s_blit.o)
                                0x210 (size before relaxing)
 .eh_frame      0x0162a774      0x140 /home/kosmick/chiffos/ChiffOS/libc/libOSMesa32.a(s_clear.o)
                                0x158 (size before relaxing)
 .eh_frame      0x0162a8b4      0x1b0 /home/kosmick/chiffos/ChiffOS/libc/libOSMesa32.a(s_copypix.o)
                                0x1c8 (size before relaxing)
 .eh_frame      0x0162aa64      0x17c /home/kosmick/chiffos/ChiffOS/libc/libOSMesa32.a(s_depth.o)
                                0x194 (size before relaxing)
 .eh_frame      0x0162abe0      0x168 /home/kosmick/chiffos/ChiffOS/libc/libOSMesa32.a(s_drawpix.o)
                                0x180 (size before relaxing)
 .eh_frame      0x0162ad48      0x120 /home/kosmick/chiffos/ChiffOS/libc/libOSMesa32.a(s_feedback.o)
                                0x138 (size before relaxing)
 .eh_frame      0x0162ae68       0x80 /home/kosmick/chiffos/ChiffOS/libc/libOSMesa32.a(s_fog.o)
                                 0x98 (size before relaxing)
 .eh_frame      0x0162aee8      0x100 /home/kosmick/chiffos/ChiffOS/libc/libOSMesa32.a(s_fragprog.o)
                                0x118 (size before relaxing)
 .eh_frame      0x0162afe8       0xf0 /home/kosmick/chiffos/ChiffOS/libc/libOSMesa32.a(s_imaging.o)
                                0x108 (size before relaxing)
 .eh_frame      0x0162b0d8       0xc8 /home/kosmick/chiffos/ChiffOS/libc/libOSMesa32.a(s_logic.o)
                                 0xe0 (size before relaxing)
 .eh_frame      0x0162b1a0       0x50 /home/kosmick/chiffos/ChiffOS/libc/libOSMesa32.a(s_masking.o)
                                 0x68 (size before relaxing)
 .eh_frame      0x0162b1f0      0x194 /home/kosmick/chiffos/ChiffOS/libc/libOSMesa32.a(s_readpix.o)
                                0x1ac (size before relaxing)
 .eh_frame      0x0162b384      0x1b8 /home/kosmick/chiffos/ChiffOS/libc/libOSMesa32.a(s_texstore.o)
                                0x1d0 (size before relaxing)
 .eh_frame      0x0162b53c      0x150 /home/kosmick/chiffos/ChiffOS/libc/libOSMesa32.a(s_zoom.o)
                                0x168 (size before relaxing)
 .eh_frame      0x0162b68c      0xdc0 /home/kosmick/chiffos/ChiffOS/libc/libOSMesa32.a(slang_codegen.o)
                                0xdd8 (size before relaxing)
 .eh_frame      0x0162c44c      0x628 /home/kosmick/chiffos/ChiffOS/libc/libOSMesa32.a(slang_emit.o)
                                0x640 (size before relaxing)
 .eh_frame      0x0162ca74      0x1dc /home/kosmick/chiffos/ChiffOS/libc/libOSMesa32.a(slang_ir.o)
                                0x1f4 (size before relaxing)
 .eh_frame      0x0162cc50       0xc0 /home/kosmick/chiffos/ChiffOS/libc/libOSMesa32.a(slang_label.o)
                                 0xd8 (size before relaxing)
 .eh_frame      0x0162cd10      0x230 /home/kosmick/chiffos/ChiffOS/libc/libOSMesa32.a(slang_print.o)
                                0x248 (size before relaxing)
 .eh_frame      0x0162cf40       0x84 /home/kosmick/chiffos/ChiffOS/libc/libOSMesa32.a(slang_builtin.o)
                                 0x9c (size before relaxing)
 .eh_frame      0x0162cfc4       0x28 /home/kosmick/chiffos/ChiffOS/libc/libc.a(lib_a-assert.o)
                                 0x40 (size before relaxing)
 .eh_frame      0x0162cfec       0x30 /home/kosmick/chiffos/ChiffOS/libc/libc.a(lib_a-atoi.o)
                                 0x48 (size before relaxing)
 .eh_frame      0x0162d01c       0x54 /home/kosmick/chiffos/ChiffOS/libc/libc.a(lib_a-bsearch.o)
                                 0x6c (size before relaxing)
 .eh_frame      0x0162d070       0x18 /home/kosmick/chiffos/ChiffOS/libc/libc.a(lib_a-calloc.o)
                                 0x30 (size before relaxing)
 .eh_frame      0x0162d088       0x30 /home/kosmick/chiffos/ChiffOS/libc/libc.a(lib_a-callocr.o)
                                 0x48 (size before relaxing)
 .eh_frame      0x0162d0b8       0x1c /home/kosmick/chiffos/ChiffOS/libc/libc.a(lib_a-exit.o)
                                 0x34 (size before relaxing)
 .eh_frame      0x0162d0d4       0x60 /home/kosmick/chiffos/ChiffOS/libc/libc.a(lib_a-fclose.o)
                                 0x78 (size before relaxing)
 .eh_frame      0x0162d134       0xb4 /home/kosmick/chiffos/ChiffOS/libc/libc.a(lib_a-fflush.o)
                                 0xcc (size before relaxing)
 .eh_frame      0x0162d1e8       0x1c /home/kosmick/chiffos/ChiffOS/libc/libc.a(lib_a-ffs.o)
                                 0x34 (size before relaxing)
 .eh_frame      0x0162d204      0x168 /home/kosmick/chiffos/ChiffOS/libc/libc.a(lib_a-findfp.o)
                                0x180 (size before relaxing)
 .eh_frame      0x0162d36c       0x30 /home/kosmick/chiffos/ChiffOS/libc/libc.a(lib_a-fiprintf.o)
                                 0x48 (size before relaxing)
 .eh_frame      0x0162d39c       0x70 /home/kosmick/chiffos/ChiffOS/libc/libc.a(lib_a-fopen.o)
                                 0x88 (size before relaxing)
 .eh_frame      0x0162d40c       0x30 /home/kosmick/chiffos/ChiffOS/libc/libc.a(lib_a-fprintf.o)
                                 0x48 (size before relaxing)
 .eh_frame      0x0162d43c       0x50 /home/kosmick/chiffos/ChiffOS/libc/libc.a(lib_a-fputc.o)
                                 0x68 (size before relaxing)
 .eh_frame      0x0162d48c       0x48 /home/kosmick/chiffos/ChiffOS/libc/libc.a(lib_a-fputs.o)
                                 0x60 (size before relaxing)
 .eh_frame      0x0162d4d4       0x70 /home/kosmick/chiffos/ChiffOS/libc/libc.a(lib_a-fread.o)
                                 0x88 (size before relaxing)
 .eh_frame      0x0162d544       0xb4 /home/kosmick/chiffos/ChiffOS/libc/libc.a(lib_a-freer.o)
                                 0xcc (size before relaxing)
 .eh_frame      0x0162d5f8       0x88 /home/kosmick/chiffos/ChiffOS/libc/libc.a(lib_a-fseek.o)
                                 0xa0 (size before relaxing)
 .eh_frame      0x0162d680       0x20 /home/kosmick/chiffos/ChiffOS/libc/libc.a(lib_a-fstatr.o)
                                 0x38 (size before relaxing)
 .eh_frame      0x0162d6a0       0x58 /home/kosmick/chiffos/ChiffOS/libc/libc.a(lib_a-fvwrite.o)
                                 0x70 (size before relaxing)
 .eh_frame      0x0162d6f8       0x78 /home/kosmick/chiffos/ChiffOS/libc/libc.a(lib_a-fwalk.o)
                                 0x90 (size before relaxing)
 .eh_frame      0x0162d770       0x50 /home/kosmick/chiffos/ChiffOS/libc/libc.a(lib_a-fwrite.o)
                                 0x68 (size before relaxing)
 .eh_frame      0x0162d7c0       0x30 /home/kosmick/chiffos/ChiffOS/libc/libc.a(lib_a-getenv.o)
                                 0x48 (size before relaxing)
 .eh_frame      0x0162d7f0       0x70 /home/kosmick/chiffos/ChiffOS/libc/libc.a(lib_a-getenv_r.o)
                                 0x88 (size before relaxing)
 .eh_frame      0x0162d860       0x58 /home/kosmick/chiffos/ChiffOS/libc/libc.a(lib_a-makebuf.o)
                                 0x70 (size before relaxing)
 .eh_frame      0x0162d8b8       0x30 /home/kosmick/chiffos/ChiffOS/libc/libc.a(lib_a-malloc.o)
                                 0x48 (size before relaxing)
 .eh_frame      0x0162d8e8       0x88 /home/kosmick/chiffos/ChiffOS/libc/libc.a(lib_a-mallocr.o)
                                 0xa0 (size before relaxing)
 .eh_frame      0x0162d970       0x28 /home/kosmick/chiffos/ChiffOS/libc/libc.a(lib_a-mlock.o)
                                 0x40 (size before relaxing)
 .eh_frame      0x0162d998       0x20 /home/kosmick/chiffos/ChiffOS/libc/libc.a(lib_a-openr.o)
                                 0x38 (size before relaxing)
 .eh_frame      0x0162d9b8       0x30 /home/kosmick/chiffos/ChiffOS/libc/libc.a(lib_a-printf.o)
                                 0x48 (size before relaxing)
 .eh_frame      0x0162d9e8       0x68 /home/kosmick/chiffos/ChiffOS/libc/libc.a(lib_a-putc.o)
                                 0x80 (size before relaxing)
 .eh_frame      0x0162da50       0x30 /home/kosmick/chiffos/ChiffOS/libc/libc.a(lib_a-putchar.o)
                                 0x48 (size before relaxing)
 .eh_frame      0x0162da80       0x44 /home/kosmick/chiffos/ChiffOS/libc/libc.a(lib_a-puts.o)
                                 0x5c (size before relaxing)
 .eh_frame      0x0162dac4       0x70 /home/kosmick/chiffos/ChiffOS/libc/libc.a(lib_a-qsort.o)
                                 0x88 (size before relaxing)
 .eh_frame      0x0162db34       0x70 /home/kosmick/chiffos/ChiffOS/libc/libc.a(lib_a-reallocr.o)
                                 0x88 (size before relaxing)
 .eh_frame      0x0162dba4       0xb4 /home/kosmick/chiffos/ChiffOS/libc/libc.a(lib_a-reent.o)
                                 0xcc (size before relaxing)
 .eh_frame      0x0162dc58       0x84 /home/kosmick/chiffos/ChiffOS/libc/libc.a(lib_a-refill.o)
                                 0x9c (size before relaxing)
 .eh_frame      0x0162dcdc       0x24 /home/kosmick/chiffos/ChiffOS/libc/libc.a(lib_a-s_frexp.o)
                                 0x3c (size before relaxing)
 .eh_frame      0x0162dd00       0x20 /home/kosmick/chiffos/ChiffOS/libc/libc.a(lib_a-s_ldexp.o)
                                 0x38 (size before relaxing)
 .eh_frame      0x0162dd20       0x44 /home/kosmick/chiffos/ChiffOS/libc/libc.a(lib_a-s_scalbn.o)
                                 0x5c (size before relaxing)
 .eh_frame      0x0162dd64       0x20 /home/kosmick/chiffos/ChiffOS/libc/libc.a(lib_a-sbrkr.o)
                                 0x38 (size before relaxing)
 .eh_frame      0x0162dd84       0x38 /home/kosmick/chiffos/ChiffOS/libc/libc.a(lib_a-sprintf.o)
                                 0x50 (size before relaxing)
 .eh_frame      0x0162ddbc       0xbc /home/kosmick/chiffos/ChiffOS/libc/libc.a(lib_a-stdio.o)
                                 0xd4 (size before relaxing)
 .eh_frame      0x0162de78       0x24 /home/kosmick/chiffos/ChiffOS/libc/libc.a(lib_a-strcmp.o)
                                 0x3c (size before relaxing)
 .eh_frame      0x0162de9c       0x30 /home/kosmick/chiffos/ChiffOS/libc/libc.a(lib_a-strcpy.o)
                                 0x48 (size before relaxing)
 .eh_frame      0x0162decc       0x3c /home/kosmick/chiffos/ChiffOS/libc/libc.a(lib_a-strncat.o)
                                 0x54 (size before relaxing)
 .eh_frame      0x0162df08       0x40 /home/kosmick/chiffos/ChiffOS/libc/libc.a(lib_a-strncmp.o)
                                 0x58 (size before relaxing)
 .eh_frame      0x0162df48       0x4c /home/kosmick/chiffos/ChiffOS/libc/libc.a(lib_a-strncpy.o)
                                 0x64 (size before relaxing)
 .eh_frame      0x0162df94      0x108 /home/kosmick/chiffos/ChiffOS/libc/libc.a(lib_a-strstr.o)
                                0x120 (size before relaxing)
 .eh_frame      0x0162e09c       0x78 /home/kosmick/chiffos/ChiffOS/libc/libc.a(lib_a-strtod.o)
                                 0x90 (size before relaxing)
 .eh_frame      0x0162e114       0x58 /home/kosmick/chiffos/ChiffOS/libc/libc.a(lib_a-strtol.o)
                                 0x70 (size before relaxing)
 .eh_frame      0x0162e16c       0x44 /home/kosmick/chiffos/ChiffOS/libc/libc.a(lib_a-svfprintf.o)
                                 0x5c (size before relaxing)
 .eh_frame      0x0162e1b0      0xc68 /home/kosmick/chiffos/ChiffOS/libc/libc.a(lib_a-syscalls.o)
                                0xc80 (size before relaxing)
 .eh_frame      0x0162ee18       0xdc /home/kosmick/chiffos/ChiffOS/libc/libc.a(lib_a-vfiprintf.o)
                                 0xf4 (size before relaxing)
 .eh_frame      0x0162eef4       0x88 /home/kosmick/chiffos/ChiffOS/libc/libc.a(lib_a-vfprintf.o)
                                 0xa0 (size before relaxing)
 .eh_frame      0x0162ef7c       0x48 /home/kosmick/chiffos/ChiffOS/libc/libc.a(lib_a-vsnprintf.o)
                                 0x60 (size before relaxing)
 .eh_frame      0x0162efc4       0x34 /home/kosmick/chiffos/ChiffOS/libc/libc.a(lib_a-vsprintf.o)
                                 0x4c (size before relaxing)
 .eh_frame      0x0162eff8       0x64 /home/kosmick/chiffos/ChiffOS/libc/libc.a(lib_a-wbuf.o)
                                 0x7c (size before relaxing)
 .eh_frame      0x0162f05c       0x20 /home/kosmick/chiffos/ChiffOS/libc/libc.a(lib_a-writer.o)
                                 0x38 (size before relaxing)
 .eh_frame      0x0162f07c       0x24 /home/kosmick/chiffos/ChiffOS/libc/libc.a(lib_a-wsetup.o)
                                 0x3c (size before relaxing)
 .eh_frame      0x0162f0a0       0x40 /home/kosmick/chiffos/ChiffOS/libc/libc.a(lib_a-__call_atexit.o)
                                 0x58 (size before relaxing)
 .eh_frame      0x0162f0e0       0x14 /home/kosmick/chiffos/ChiffOS/libc/libc.a(lib_a-abort.o)
                                 0x2c (size before relaxing)
 .eh_frame      0x0162f0f4       0x20 /home/kosmick/chiffos/ChiffOS/libc/libc.a(lib_a-closer.o)
                                 0x38 (size before relaxing)
 .eh_frame      0x0162f114       0xc4 /home/kosmick/chiffos/ChiffOS/libc/libc.a(lib_a-dtoa.o)
                                 0xdc (size before relaxing)
 .eh_frame      0x0162f1d8       0x28 /home/kosmick/chiffos/ChiffOS/libc/libc.a(lib_a-envlock.o)
                                 0x40 (size before relaxing)
 .eh_frame      0x0162f200       0x14 /home/kosmick/chiffos/ChiffOS/libc/libc.a(lib_a-errno.o)
                                 0x2c (size before relaxing)
 .eh_frame      0x0162f214       0x34 /home/kosmick/chiffos/ChiffOS/libc/libc.a(lib_a-flags.o)
                                 0x4c (size before relaxing)
 .eh_frame      0x0162f248       0x88 /home/kosmick/chiffos/ChiffOS/libc/libc.a(lib_a-fputwc.o)
                                 0xa0 (size before relaxing)
 .eh_frame      0x0162f2d0       0xdc /home/kosmick/chiffos/ChiffOS/libc/libc.a(lib_a-gdtoa-gethex.o)
                                 0xf4 (size before relaxing)
 .eh_frame      0x0162f3ac       0x70 /home/kosmick/chiffos/ChiffOS/libc/libc.a(lib_a-gdtoa-hexnan.o)
                                 0x88 (size before relaxing)
 .eh_frame      0x0162f41c       0x20 /home/kosmick/chiffos/ChiffOS/libc/libc.a(lib_a-isattyr.o)
                                 0x38 (size before relaxing)
 .eh_frame      0x0162f43c       0xbc /home/kosmick/chiffos/ChiffOS/libc/libc.a(lib_a-locale.o)
                                 0xd4 (size before relaxing)
 .eh_frame      0x0162f4f8       0x20 /home/kosmick/chiffos/ChiffOS/libc/libc.a(lib_a-lseekr.o)
                                 0x38 (size before relaxing)
 .eh_frame      0x0162f518      0x438 /home/kosmick/chiffos/ChiffOS/libc/libc.a(lib_a-mprec.o)
                                0x450 (size before relaxing)
 .eh_frame      0x0162f950       0x20 /home/kosmick/chiffos/ChiffOS/libc/libc.a(lib_a-readr.o)
                                 0x38 (size before relaxing)
 .eh_frame      0x0162f970       0x20 /home/kosmick/chiffos/ChiffOS/libc/libc.a(lib_a-s_copysign.o)
                                 0x38 (size before relaxing)
 .eh_frame      0x0162f990       0x14 /home/kosmick/chiffos/ChiffOS/libc/libc.a(lib_a-s_finite.o)
                                 0x2c (size before relaxing)
 .eh_frame      0x0162f9a4       0x20 /home/kosmick/chiffos/ChiffOS/libc/libc.a(lib_a-s_fpclassify.o)
                                 0x38 (size before relaxing)
 .eh_frame      0x0162f9c4       0x14 /home/kosmick/chiffos/ChiffOS/libc/libc.a(lib_a-sf_nan.o)
                                 0x2c (size before relaxing)
 .eh_frame      0x0162f9d8      0x138 /home/kosmick/chiffos/ChiffOS/libc/libc.a(lib_a-signal.o)
                                0x150 (size before relaxing)
 .eh_frame      0x0162fb10       0x34 /home/kosmick/chiffos/ChiffOS/libc/libc.a(lib_a-signalr.o)
                                 0x4c (size before relaxing)
 .eh_frame      0x0162fb44       0x38 /home/kosmick/chiffos/ChiffOS/libc/libc.a(lib_a-sscanf.o)
                                 0x50 (size before relaxing)
 .eh_frame      0x0162fb7c       0xb0 /home/kosmick/chiffos/ChiffOS/libc/libc.a(lib_a-svfiprintf.o)
                                 0xc8 (size before relaxing)
 .eh_frame      0x0162fc2c       0x5c /home/kosmick/chiffos/ChiffOS/libc/libc.a(lib_a-svfscanf.o)
                                 0x74 (size before relaxing)
 .eh_frame      0x0162fc88       0x78 /home/kosmick/chiffos/ChiffOS/libc/libc.a(lib_a-wcrtomb.o)
                                 0x90 (size before relaxing)
 .eh_frame      0x0162fd00       0x34 /home/kosmick/chiffos/ChiffOS/libc/libc.a(lib_a-wctomb_r.o)
                                 0x4c (size before relaxing)
 .eh_frame      0x0162fd34       0x14 /home/kosmick/chiffos/ChiffOS/libc/libc.a(lib_a-iswspace.o)
                                 0x2c (size before relaxing)
 .eh_frame      0x0162fd48       0x78 /home/kosmick/chiffos/ChiffOS/libc/libc.a(lib_a-mbrtowc.o)
                                 0x90 (size before relaxing)
 .eh_frame      0x0162fdc0       0x40 /home/kosmick/chiffos/ChiffOS/libc/libc.a(lib_a-mbtowc_r.o)
                                 0x58 (size before relaxing)
 .eh_frame      0x0162fe00       0x40 /home/kosmick/chiffos/ChiffOS/libc/libc.a(lib_a-sccl.o)
                                 0x58 (size before relaxing)
 .eh_frame      0x0162fe40       0x58 /home/kosmick/chiffos/ChiffOS/libc/libc.a(lib_a-strtoul.o)
                                 0x70 (size before relaxing)
 .eh_frame      0x0162fe98      0x100 /home/kosmick/chiffos/ChiffOS/libc/libc.a(lib_a-svfiscanf.o)
                                0x118 (size before relaxing)
 .eh_frame      0x0162ff98       0xbc /home/kosmick/chiffos/ChiffOS/libc/libc.a(lib_a-ungetc.o)
                                 0xd4 (size before relaxing)
 .eh_frame      0x01630054       0x4c /home/kosmick/chiffos/ChiffOS/libc/libm.a(lib_a-s_atan.o)
                                 0x64 (size before relaxing)
 .eh_frame      0x016300a0       0x24 /home/kosmick/chiffos/ChiffOS/libc/libm.a(lib_a-s_cos.o)
                                 0x3c (size before relaxing)
 .eh_frame      0x016300c4       0x18 /home/kosmick/chiffos/ChiffOS/libc/libm.a(lib_a-s_fabs.o)
                                 0x30 (size before relaxing)
 .eh_frame      0x016300dc       0x40 /home/kosmick/chiffos/ChiffOS/libc/libm.a(lib_a-s_floor.o)
                                 0x58 (size before relaxing)
 .eh_frame      0x0163011c       0x24 /home/kosmick/chiffos/ChiffOS/libc/libm.a(lib_a-s_sin.o)
                                 0x3c (size before relaxing)
 .eh_frame      0x01630140       0x24 /home/kosmick/chiffos/ChiffOS/libc/libm.a(lib_a-w_asin.o)
                                 0x3c (size before relaxing)
 .eh_frame      0x01630164       0x1c /home/kosmick/chiffos/ChiffOS/libc/libm.a(lib_a-w_exp.o)
                                 0x34 (size before relaxing)
 .eh_frame      0x01630180       0x24 /home/kosmick/chiffos/ChiffOS/libc/libm.a(lib_a-w_log.o)
                                 0x3c (size before relaxing)
 .eh_frame      0x016301a4       0x24 /home/kosmick/chiffos/ChiffOS/libc/libm.a(lib_a-w_pow.o)
                                 0x3c (size before relaxing)
 .eh_frame      0x016301c8       0x24 /home/kosmick/chiffos/ChiffOS/libc/libm.a(lib_a-w_sqrt.o)
                                 0x3c (size before relaxing)
 .eh_frame      0x016301ec       0x48 /home/kosmick/chiffos/ChiffOS/libc/libm.a(lib_a-e_asin.o)
                                 0x60 (size before relaxing)
 .eh_frame      0x01630234       0x74 /home/kosmick/chiffos/ChiffOS/libc/libm.a(lib_a-e_exp.o)
                                 0x8c (size before relaxing)
 .eh_frame      0x016302a8       0x5c /home/kosmick/chiffos/ChiffOS/libc/libm.a(lib_a-e_log.o)
                                 0x74 (size before relaxing)
 .eh_frame      0x01630304       0x70 /home/kosmick/chiffos/ChiffOS/libc/libm.a(lib_a-e_pow.o)
                                 0x88 (size before relaxing)
 .eh_frame      0x01630374       0x58 /home/kosmick/chiffos/ChiffOS/libc/libm.a(lib_a-e_rem_pio2.o)
                                 0x70 (size before relaxing)
 .eh_frame      0x016303cc       0x58 /home/kosmick/chiffos/ChiffOS/libc/libm.a(lib_a-e_sqrt.o)
                                 0x70 (size before relaxing)
 .eh_frame      0x01630424       0x28 /home/kosmick/chiffos/ChiffOS/libc/libm.a(lib_a-k_cos.o)
                                 0x40 (size before relaxing)
 .eh_frame      0x0163044c       0x44 /home/kosmick/chiffos/ChiffOS/libc/libm.a(lib_a-k_rem_pio2.o)
                                 0x5c (size before relaxing)
 .eh_frame      0x01630490       0x20 /home/kosmick/chiffos/ChiffOS/libc/libm.a(lib_a-k_sin.o)
                                 0x38 (size before relaxing)
 .eh_frame      0x016304b0       0x14 /home/kosmick/chiffos/ChiffOS/libc/libm.a(lib_a-s_matherr.o)
                                 0x2c (size before relaxing)
 .eh_frame      0x016304c4       0x18 /home/kosmick/chiffos/ChiffOS/libc/libm.a(lib_a-s_nan.o)
                                 0x30 (size before relaxing)
 .eh_frame      0x016304dc       0x58 /home/kosmick/chiffos/ChiffOS/libc/libm.a(lib_a-s_rint.o)
                                 0x70 (size before relaxing)

.rodata.str1.1  0x01630534       0xb0
 .rodata.str1.1
                0x01630534        0xd /home/kosmick/chiffos/ChiffOS/libc/libc.a(lib_a-assert.o)
                                  0xe (size before relaxing)
 .rodata.str1.1
                0x01630541        0x2 /home/kosmick/chiffos/ChiffOS/libc/libc.a(lib_a-impure.o)
 .rodata.str1.1
                0x01630543        0x2 /home/kosmick/chiffos/ChiffOS/libc/libc.a(lib_a-puts.o)
 .rodata.str1.1
                0x00000000        0x2 /home/kosmick/chiffos/ChiffOS/libc/libc.a(lib_a-strtod.o)
                                  0xc (size before relaxing)
 .rodata.str1.1
                0x01630545       0x3b /home/kosmick/chiffos/ChiffOS/libc/libc.a(lib_a-svfprintf.o)
 .rodata.str1.1
                0x01630580       0x29 /home/kosmick/chiffos/ChiffOS/libc/libc.a(lib_a-syscalls.o)
 .rodata.str1.1
                0x00000000       0x29 /home/kosmick/chiffos/ChiffOS/libc/libc.a(lib_a-vfiprintf.o)
 .rodata.str1.1
                0x00000000       0x3b /home/kosmick/chiffos/ChiffOS/libc/libc.a(lib_a-vfprintf.o)
 .rodata.str1.1
                0x016305a9        0xd /home/kosmick/chiffos/ChiffOS/libc/libc.a(lib_a-dtoa.o)
                                  0xf (size before relaxing)
 .rodata.str1.1
                0x016305b6        0xb /home/kosmick/chiffos/ChiffOS/libc/libc.a(lib_a-gdtoa-gethex.o)
                                 0x19 (size before relaxing)
 .rodata.str1.1
                0x016305c1        0x8 /home/kosmick/chiffos/ChiffOS/libc/libc.a(lib_a-locale.o)
                                  0xb (size before relaxing)
 .rodata.str1.1
                0x00000000       0x29 /home/kosmick/chiffos/ChiffOS/libc/libc.a(lib_a-svfiprintf.o)
 .rodata.str1.1
                0x016305c9        0x5 /home/kosmick/chiffos/ChiffOS/libc/libc.a(lib_a-svfscanf.o)
 .rodata.str1.1
                0x00000000        0x1 /home/kosmick/chiffos/ChiffOS/libc/libc.a(lib_a-mbrtowc.o)
 .rodata.str1.1
                0x016305ce        0x5 /home/kosmick/chiffos/ChiffOS/libc/libm.a(lib_a-w_asin.o)
                                  0x6 (size before relaxing)
 .rodata.str1.1
                0x016305d3        0x4 /home/kosmick/chiffos/ChiffOS/libc/libm.a(lib_a-w_exp.o)
 .rodata.str1.1
                0x016305d7        0x4 /home/kosmick/chiffos/ChiffOS/libc/libm.a(lib_a-w_log.o)
                                  0x5 (size before relaxing)
 .rodata.str1.1
                0x016305db        0x4 /home/kosmick/chiffos/ChiffOS/libc/libm.a(lib_a-w_pow.o)
 .rodata.str1.1
                0x016305df        0x5 /home/kosmick/chiffos/ChiffOS/libc/libm.a(lib_a-w_sqrt.o)
 .rodata.str1.1
                0x00000000        0x1 /home/kosmick/chiffos/ChiffOS/libc/libm.a(lib_a-e_pow.o)

.rodata.str1.4  0x016305e4       0x30
 .rodata.str1.4
                0x016305e4       0x30 /home/kosmick/chiffos/ChiffOS/libc/libc.a(lib_a-assert.o)
                                 0x2f (size before relaxing)

.rodata.cst4    0x01630614       0x68
 .rodata.cst4   0x01630614        0x4 /home/kosmick/chiffos/ChiffOS/libc/libc.a(lib_a-s_frexp.o)
 .rodata.cst4   0x01630618        0x4 /home/kosmick/chiffos/ChiffOS/libc/libc.a(lib_a-s_scalbn.o)
                                  0x8 (size before relaxing)
 .rodata.cst4   0x0163061c        0xc /home/kosmick/chiffos/ChiffOS/libc/libc.a(lib_a-strtod.o)
 .rodata.cst4   0x01630628       0x14 /home/kosmick/chiffos/ChiffOS/libc/libc.a(lib_a-dtoa.o)
                                 0x18 (size before relaxing)
 .rodata.cst4   0x00000000        0x4 /home/kosmick/chiffos/ChiffOS/libc/libc.a(lib_a-mprec.o)
 .rodata.cst4   0x0163063c        0x4 /home/kosmick/chiffos/ChiffOS/libc/libc.a(lib_a-sf_nan.o)
 .rodata.cst4   0x01630640        0x4 /home/kosmick/chiffos/ChiffOS/libc/libm.a(lib_a-s_atan.o)
                                 0x10 (size before relaxing)
 .rodata.cst4   0x00000000        0x4 /home/kosmick/chiffos/ChiffOS/libc/libm.a(lib_a-w_pow.o)
 .rodata.cst4   0x00000000        0x8 /home/kosmick/chiffos/ChiffOS/libc/libm.a(lib_a-e_asin.o)
 .rodata.cst4   0x00000000        0xc /home/kosmick/chiffos/ChiffOS/libc/libm.a(lib_a-e_exp.o)
 .rodata.cst4   0x01630644        0x8 /home/kosmick/chiffos/ChiffOS/libc/libm.a(lib_a-e_log.o)
                                 0x18 (size before relaxing)
 .rodata.cst4   0x0163064c       0x18 /home/kosmick/chiffos/ChiffOS/libc/libm.a(lib_a-e_pow.o)
                                 0x24 (size before relaxing)
 .rodata.cst4   0x01630664        0x4 /home/kosmick/chiffos/ChiffOS/libc/libm.a(lib_a-e_rem_pio2.o)
                                  0x8 (size before relaxing)
 .rodata.cst4   0x01630668        0x8 /home/kosmick/chiffos/ChiffOS/libc/libm.a(lib_a-k_cos.o)
                                 0x10 (size before relaxing)
 .rodata.cst4   0x01630670        0xc /home/kosmick/chiffos/ChiffOS/libc/libm.a(lib_a-k_rem_pio2.o)
                                 0x14 (size before relaxing)
 .rodata.cst4   0x00000000        0x4 /home/kosmick/chiffos/ChiffOS/libc/libm.a(lib_a-k_sin.o)

.rodata.cst8    0x01630680      0x2a0
 .rodata.cst8   0x01630680       0x10 /home/kosmick/chiffos/ChiffOS/libc/libc.a(lib_a-s_scalbn.o)
 .rodata.cst8   0x01630690       0x20 /home/kosmick/chiffos/ChiffOS/libc/libc.a(lib_a-strtod.o)
 .rodata.cst8   0x016306b0       0x18 /home/kosmick/chiffos/ChiffOS/libc/libc.a(lib_a-dtoa.o)
 .rodata.cst8   0x016306c8       0x68 /home/kosmick/chiffos/ChiffOS/libc/libm.a(lib_a-s_atan.o)
                                 0x70 (size before relaxing)
 .rodata.cst8   0x00000000        0x8 /home/kosmick/chiffos/ChiffOS/libc/libm.a(lib_a-s_floor.o)
 .rodata.cst8   0x01630730       0x10 /home/kosmick/chiffos/ChiffOS/libc/libm.a(lib_a-w_exp.o)
 .rodata.cst8   0x01630740       0x60 /home/kosmick/chiffos/ChiffOS/libc/libm.a(lib_a-e_asin.o)
                                 0x70 (size before relaxing)
 .rodata.cst8   0x016307a0       0x48 /home/kosmick/chiffos/ChiffOS/libc/libm.a(lib_a-e_exp.o)
                                 0x60 (size before relaxing)
 .rodata.cst8   0x016307e8       0x40 /home/kosmick/chiffos/ChiffOS/libc/libm.a(lib_a-e_log.o)
                                 0x50 (size before relaxing)
 .rodata.cst8   0x01630828       0x60 /home/kosmick/chiffos/ChiffOS/libc/libm.a(lib_a-e_pow.o)
                                 0xa8 (size before relaxing)
 .rodata.cst8   0x01630888       0x38 /home/kosmick/chiffos/ChiffOS/libc/libm.a(lib_a-e_rem_pio2.o)
 .rodata.cst8   0x016308c0       0x30 /home/kosmick/chiffos/ChiffOS/libc/libm.a(lib_a-k_cos.o)
 .rodata.cst8   0x016308f0       0x30 /home/kosmick/chiffos/ChiffOS/libc/libm.a(lib_a-k_sin.o)

.iplt           0x01630920        0x0
 .iplt          0x00000000        0x0 /home/kosmick/chiffos/ChiffOS/user/start.o

.rel.dyn        0x01630920        0x0
 .rel.iplt      0x00000000        0x0 /home/kosmick/chiffos/ChiffOS/user/start.o
 .rel.text      0x00000000        0x0 /home/kosmick/chiffos/ChiffOS/user/start.o
 .rel.data      0x00000000        0x0 /home/kosmick/chiffos/ChiffOS/user/start.o

.data           0x01630920    0x6a450
 *(.data .rodata)
 .data          0x01630920       0x48 ./glxgear.o
 .rodata        0x01630968       0x78 ./glxgear.o
 .data          0x016309e0       0x60 /home/kosmick/chiffos/ChiffOS/libc/libOSMesa32.a(osmesa.o)
 .rodata        0x01630a40      0x258 /home/kosmick/chiffos/ChiffOS/libc/libOSMesa32.a(osmesa.o)
 .data          0x01630c98        0x0 /home/kosmick/chiffos/ChiffOS/libc/libOSMesa32.a(context.o)
 .rodata        0x01630c98      0x5cc /home/kosmick/chiffos/ChiffOS/libc/libOSMesa32.a(context.o)
 .data          0x01631264        0x0 /home/kosmick/chiffos/ChiffOS/libc/libOSMesa32.a(cpuinfo.o)
 .rodata        0x01631264       0x46 /home/kosmick/chiffos/ChiffOS/libc/libOSMesa32.a(cpuinfo.o)
 *fill*         0x016312aa       0x16 
 .data          0x016312c0       0x34 /home/kosmick/chiffos/ChiffOS/libc/libOSMesa32.a(debug.o)
                0x016312c0                _mesa_prim_name
 .rodata        0x016312f4      0x540 /home/kosmick/chiffos/ChiffOS/libc/libOSMesa32.a(debug.o)
 .data          0x01631834        0x0 /home/kosmick/chiffos/ChiffOS/libc/libOSMesa32.a(depth.o)
 .rodata        0x01631834       0x40 /home/kosmick/chiffos/ChiffOS/libc/libOSMesa32.a(depth.o)
 .data          0x01631874        0x0 /home/kosmick/chiffos/ChiffOS/libc/libOSMesa32.a(dlist.o)
 *fill*         0x01631874        0x4 
 .rodata        0x01631878      0xf0c /home/kosmick/chiffos/ChiffOS/libc/libOSMesa32.a(dlist.o)
 .data          0x01632784        0x0 /home/kosmick/chiffos/ChiffOS/libc/libOSMesa32.a(enums.o)
 *fill*         0x01632784       0x1c 
 .rodata        0x016327a0     0xe848 /home/kosmick/chiffos/ChiffOS/libc/libOSMesa32.a(enums.o)
 .data          0x01640fe8       0x50 /home/kosmick/chiffos/ChiffOS/libc/libOSMesa32.a(eval.o)
 .rodata        0x01641038      0x230 /home/kosmick/chiffos/ChiffOS/libc/libOSMesa32.a(eval.o)
 .data          0x01641268        0x0 /home/kosmick/chiffos/ChiffOS/libc/libOSMesa32.a(extensions.o)
 *fill*         0x01641268       0x18 
 .rodata        0x01641280     0x126f /home/kosmick/chiffos/ChiffOS/libc/libOSMesa32.a(extensions.o)
 *fill*         0x016424ef        0x1 
 .data          0x016424f0        0x0 /home/kosmick/chiffos/ChiffOS/libc/libOSMesa32.a(fbobject.o)
 *fill*         0x016424f0       0x10 
 .rodata        0x01642500      0xc41 /home/kosmick/chiffos/ChiffOS/libc/libOSMesa32.a(fbobject.o)
 *fill*         0x01643141        0x3 
 .data          0x01643144        0x0 /home/kosmick/chiffos/ChiffOS/libc/libOSMesa32.a(feedback.o)
 .rodata        0x01643144       0xf0 /home/kosmick/chiffos/ChiffOS/libc/libOSMesa32.a(feedback.o)
 .data          0x01643234        0x0 /home/kosmick/chiffos/ChiffOS/libc/libOSMesa32.a(fog.o)
 *fill*         0x01643234        0x4 
 .rodata        0x01643238       0x2c /home/kosmick/chiffos/ChiffOS/libc/libOSMesa32.a(fog.o)
 .data          0x01643264        0x0 /home/kosmick/chiffos/ChiffOS/libc/libOSMesa32.a(framebuffer.o)
 .rodata        0x01643264      0x196 /home/kosmick/chiffos/ChiffOS/libc/libOSMesa32.a(framebuffer.o)
 *fill*         0x016433fa        0x2 
 .data          0x016433fc       0x20 /home/kosmick/chiffos/ChiffOS/libc/libOSMesa32.a(getstring.o)
 .rodata        0x0164341c       0xda /home/kosmick/chiffos/ChiffOS/libc/libOSMesa32.a(getstring.o)
 *fill*         0x016434f6        0x2 
 .data          0x016434f8        0x0 /home/kosmick/chiffos/ChiffOS/libc/libOSMesa32.a(hash.o)
 .rodata        0x016434f8      0x11e /home/kosmick/chiffos/ChiffOS/libc/libOSMesa32.a(hash.o)
 *fill*         0x01643616        0x2 
 .data          0x01643618        0x0 /home/kosmick/chiffos/ChiffOS/libc/libOSMesa32.a(hint.o)
 .rodata        0x01643618       0x31 /home/kosmick/chiffos/ChiffOS/libc/libOSMesa32.a(hint.o)
 *fill*         0x01643649        0x3 
 .data          0x0164364c        0x0 /home/kosmick/chiffos/ChiffOS/libc/libOSMesa32.a(histogram.o)
 .rodata        0x0164364c      0x40c /home/kosmick/chiffos/ChiffOS/libc/libOSMesa32.a(histogram.o)
 .data          0x01643a58        0x0 /home/kosmick/chiffos/ChiffOS/libc/libOSMesa32.a(image.o)
 .rodata        0x01643a58      0x4cc /home/kosmick/chiffos/ChiffOS/libc/libOSMesa32.a(image.o)
 .data          0x01643f24        0x8 /home/kosmick/chiffos/ChiffOS/libc/libOSMesa32.a(imports.o)
 .rodata        0x01643f2c      0x1e0 /home/kosmick/chiffos/ChiffOS/libc/libOSMesa32.a(imports.o)
 .data          0x0164410c        0x0 /home/kosmick/chiffos/ChiffOS/libc/libOSMesa32.a(light.o)
 *fill*         0x0164410c        0x4 
 .rodata        0x01644110      0x280 /home/kosmick/chiffos/ChiffOS/libc/libOSMesa32.a(light.o)
 .data          0x01644390        0x0 /home/kosmick/chiffos/ChiffOS/libc/libOSMesa32.a(lines.o)
 .rodata        0x01644390       0x28 /home/kosmick/chiffos/ChiffOS/libc/libOSMesa32.a(lines.o)
 .data          0x016443b8        0x0 /home/kosmick/chiffos/ChiffOS/libc/libOSMesa32.a(matrix.o)
 .rodata        0x016443b8       0xdc /home/kosmick/chiffos/ChiffOS/libc/libOSMesa32.a(matrix.o)
 .data          0x01644494        0x0 /home/kosmick/chiffos/ChiffOS/libc/libOSMesa32.a(multisample.o)
 .rodata        0x01644494       0x20 /home/kosmick/chiffos/ChiffOS/libc/libOSMesa32.a(multisample.o)
 .data          0x016444b4        0x0 /home/kosmick/chiffos/ChiffOS/libc/libOSMesa32.a(pixel.o)
 *fill*         0x016444b4        0x4 
 .rodata        0x016444b8      0x2ac /home/kosmick/chiffos/ChiffOS/libc/libOSMesa32.a(pixel.o)
 .data          0x01644764        0x0 /home/kosmick/chiffos/ChiffOS/libc/libOSMesa32.a(pixelstore.o)
 .rodata        0x01644764       0x4a /home/kosmick/chiffos/ChiffOS/libc/libOSMesa32.a(pixelstore.o)
 *fill*         0x016447ae        0x2 
 .data          0x016447b0        0x0 /home/kosmick/chiffos/ChiffOS/libc/libOSMesa32.a(points.o)
 .rodata        0x016447b0       0x7c /home/kosmick/chiffos/ChiffOS/libc/libOSMesa32.a(points.o)
 .data          0x0164482c        0x0 /home/kosmick/chiffos/ChiffOS/libc/libOSMesa32.a(polygon.o)
 .rodata        0x0164482c       0xdc /home/kosmick/chiffos/ChiffOS/libc/libOSMesa32.a(polygon.o)
 .data          0x01644908        0x0 /home/kosmick/chiffos/ChiffOS/libc/libOSMesa32.a(queryobj.o)
 .rodata        0x01644908      0x2c1 /home/kosmick/chiffos/ChiffOS/libc/libOSMesa32.a(queryobj.o)
 *fill*         0x01644bc9        0x3 
 .data          0x01644bcc        0x0 /home/kosmick/chiffos/ChiffOS/libc/libOSMesa32.a(rastpos.o)
 .rodata        0x01644bcc       0x20 /home/kosmick/chiffos/ChiffOS/libc/libOSMesa32.a(rastpos.o)
 .data          0x01644bec        0x0 /home/kosmick/chiffos/ChiffOS/libc/libOSMesa32.a(renderbuffer.o)
 *fill*         0x01644bec       0x14 
 .rodata        0x01644c00      0x7a3 /home/kosmick/chiffos/ChiffOS/libc/libOSMesa32.a(renderbuffer.o)
 *fill*         0x016453a3        0x1 
 .data          0x016453a4        0x0 /home/kosmick/chiffos/ChiffOS/libc/libOSMesa32.a(scissor.o)
 .rodata        0x016453a4       0x1f /home/kosmick/chiffos/ChiffOS/libc/libOSMesa32.a(scissor.o)
 *fill*         0x016453c3        0x1 
 .data          0x016453c4        0x0 /home/kosmick/chiffos/ChiffOS/libc/libOSMesa32.a(shared.o)
 .rodata        0x016453c4       0x79 /home/kosmick/chiffos/ChiffOS/libc/libOSMesa32.a(shared.o)
 *fill*         0x0164543d        0x3 
 .data          0x01645440        0x0 /home/kosmick/chiffos/ChiffOS/libc/libOSMesa32.a(state.o)
 .data          0x01645440        0x0 /home/kosmick/chiffos/ChiffOS/libc/libOSMesa32.a(stencil.o)
 .rodata        0x01645440      0x1a0 /home/kosmick/chiffos/ChiffOS/libc/libOSMesa32.a(stencil.o)
 .data          0x016455e0        0x0 /home/kosmick/chiffos/ChiffOS/libc/libOSMesa32.a(texcompress_s3tc.o)
 .rodata        0x016455e0      0x5e0 /home/kosmick/chiffos/ChiffOS/libc/libOSMesa32.a(texcompress_s3tc.o)
                0x016459a0                _mesa_texformat_rgb_dxt1
                0x016459e0                _mesa_texformat_rgba_dxt1
                0x01645a20                _mesa_texformat_rgba_dxt3
                0x01645a60                _mesa_texformat_rgba_dxt5
                0x01645aa0                _mesa_texformat_srgb_dxt1
                0x01645ae0                _mesa_texformat_srgba_dxt1
                0x01645b20                _mesa_texformat_srgba_dxt3
                0x01645b60                _mesa_texformat_srgba_dxt5
 .data          0x01645bc0       0x20 /home/kosmick/chiffos/ChiffOS/libc/libOSMesa32.a(texcompress_fxt1.o)
 .rodata        0x01645be0      0x170 /home/kosmick/chiffos/ChiffOS/libc/libOSMesa32.a(texcompress_fxt1.o)
                0x01645be0                _mesa_texformat_rgb_fxt1
                0x01645c20                _mesa_texformat_rgba_fxt1
 .data          0x01645d50        0x0 /home/kosmick/chiffos/ChiffOS/libc/libOSMesa32.a(texenvprogram.o)
 .rodata        0x01645d50      0x3ac /home/kosmick/chiffos/ChiffOS/libc/libOSMesa32.a(texenvprogram.o)
 .data          0x016460fc        0x0 /home/kosmick/chiffos/ChiffOS/libc/libOSMesa32.a(teximage.o)
 *fill*         0x016460fc        0x4 
 .rodata        0x01646100      0xe48 /home/kosmick/chiffos/ChiffOS/libc/libOSMesa32.a(teximage.o)
 .data          0x01646f48        0x0 /home/kosmick/chiffos/ChiffOS/libc/libOSMesa32.a(texobj.o)
 .rodata        0x01646f48      0x384 /home/kosmick/chiffos/ChiffOS/libc/libOSMesa32.a(texobj.o)
 .data          0x016472cc        0x0 /home/kosmick/chiffos/ChiffOS/libc/libOSMesa32.a(texstate.o)
 *fill*         0x016472cc       0x14 
 .rodata        0x016472e0      0x430 /home/kosmick/chiffos/ChiffOS/libc/libOSMesa32.a(texstate.o)
 .data          0x01647710        0x0 /home/kosmick/chiffos/ChiffOS/libc/libOSMesa32.a(texstore.o)
 *fill*         0x01647710       0x10 
 .rodata        0x01647720      0x238 /home/kosmick/chiffos/ChiffOS/libc/libOSMesa32.a(texstore.o)
 .data          0x01647958        0x0 /home/kosmick/chiffos/ChiffOS/libc/libOSMesa32.a(varray.o)
 .rodata        0x01647958      0x591 /home/kosmick/chiffos/ChiffOS/libc/libOSMesa32.a(varray.o)
 *fill*         0x01647ee9        0x3 
 .data          0x01647eec        0x0 /home/kosmick/chiffos/ChiffOS/libc/libOSMesa32.a(viewport.o)
 .rodata        0x01647eec       0x3c /home/kosmick/chiffos/ChiffOS/libc/libOSMesa32.a(viewport.o)
 *fill*         0x01647f28       0x18 
 .data          0x01647f40      0x114 /home/kosmick/chiffos/ChiffOS/libc/libOSMesa32.a(vtxfmt.o)
 *fill*         0x01648054        0xc 
 .data          0x01648060       0x7c /home/kosmick/chiffos/ChiffOS/libc/libOSMesa32.a(m_matrix.o)
 *fill*         0x016480dc        0x4 
 .rodata        0x016480e0      0x100 /home/kosmick/chiffos/ChiffOS/libc/libOSMesa32.a(m_matrix.o)
 .data          0x016481e0        0x0 /home/kosmick/chiffos/ChiffOS/libc/libOSMesa32.a(vbo_context.o)
 .data          0x016481e0        0x0 /home/kosmick/chiffos/ChiffOS/libc/libOSMesa32.a(vbo_exec.o)
 .data          0x016481e0        0x0 /home/kosmick/chiffos/ChiffOS/libc/libOSMesa32.a(vbo_exec_api.o)
 .rodata        0x016481e0      0x298 /home/kosmick/chiffos/ChiffOS/libc/libOSMesa32.a(vbo_exec_api.o)
 .data          0x01648478        0x0 /home/kosmick/chiffos/ChiffOS/libc/libOSMesa32.a(vbo_exec_array.o)
 .rodata        0x01648478       0xdf /home/kosmick/chiffos/ChiffOS/libc/libOSMesa32.a(vbo_exec_array.o)
 *fill*         0x01648557        0x1 
 .data          0x01648558        0x0 /home/kosmick/chiffos/ChiffOS/libc/libOSMesa32.a(vbo_exec_draw.o)
 .rodata        0x01648558      0x183 /home/kosmick/chiffos/ChiffOS/libc/libOSMesa32.a(vbo_exec_draw.o)
 *fill*         0x016486db        0x1 
 .data          0x016486dc        0x0 /home/kosmick/chiffos/ChiffOS/libc/libOSMesa32.a(vbo_exec_eval.o)
 .rodata        0x016486dc        0x8 /home/kosmick/chiffos/ChiffOS/libc/libOSMesa32.a(vbo_exec_eval.o)
 .data          0x016486e4        0x0 /home/kosmick/chiffos/ChiffOS/libc/libOSMesa32.a(vbo_save.o)
 .data          0x016486e4       0x10 /home/kosmick/chiffos/ChiffOS/libc/libOSMesa32.a(vbo_save_api.o)
 .rodata        0x016486f4      0x47c /home/kosmick/chiffos/ChiffOS/libc/libOSMesa32.a(vbo_save_api.o)
 .data          0x01648b70        0x0 /home/kosmick/chiffos/ChiffOS/libc/libOSMesa32.a(vbo_save_draw.o)
 .rodata        0x01648b70       0x7c /home/kosmick/chiffos/ChiffOS/libc/libOSMesa32.a(vbo_save_draw.o)
 .data          0x01648bec       0x10 /home/kosmick/chiffos/ChiffOS/libc/libOSMesa32.a(vbo_save_loopback.o)
 .rodata        0x01648bfc       0x31 /home/kosmick/chiffos/ChiffOS/libc/libOSMesa32.a(vbo_save_loopback.o)
 *fill*         0x01648c2d        0x3 
 .data          0x01648c30        0x0 /home/kosmick/chiffos/ChiffOS/libc/libOSMesa32.a(t_context.o)
 *fill*         0x01648c30       0x10 
 .data          0x01648c40       0x38 /home/kosmick/chiffos/ChiffOS/libc/libOSMesa32.a(t_pipeline.o)
                0x01648c40                _tnl_default_pipeline
                0x01648c68                _tnl_vp_pipeline
 .data          0x01648c78        0x0 /home/kosmick/chiffos/ChiffOS/libc/libOSMesa32.a(t_draw.o)
 .rodata        0x01648c78       0xe8 /home/kosmick/chiffos/ChiffOS/libc/libOSMesa32.a(t_draw.o)
 .data          0x01648d60        0x0 /home/kosmick/chiffos/ChiffOS/libc/libOSMesa32.a(t_vb_program.o)
 .rodata        0x01648d60       0x30 /home/kosmick/chiffos/ChiffOS/libc/libOSMesa32.a(t_vb_program.o)
                0x01648d70                _tnl_vertex_program_stage
 *fill*         0x01648d90       0x10 
 .data          0x01648da0       0xec /home/kosmick/chiffos/ChiffOS/libc/libOSMesa32.a(t_vb_render.o)
                0x01648e20                _tnl_render_tab_verts
                0x01648e60                _tnl_render_tab_elts
 .rodata        0x01648e8c       0x68 /home/kosmick/chiffos/ChiffOS/libc/libOSMesa32.a(t_vb_render.o)
                0x01648ecc                _tnl_render_stage
 .data          0x01648ef4       0x3c /home/kosmick/chiffos/ChiffOS/libc/libOSMesa32.a(t_vb_texgen.o)
 .rodata        0x01648f30       0x5c /home/kosmick/chiffos/ChiffOS/libc/libOSMesa32.a(t_vb_texgen.o)
                0x01648f6c                _tnl_texgen_stage
 .data          0x01648f8c        0x0 /home/kosmick/chiffos/ChiffOS/libc/libOSMesa32.a(t_vb_texmat.o)
 .rodata        0x01648f8c       0x2c /home/kosmick/chiffos/ChiffOS/libc/libOSMesa32.a(t_vb_texmat.o)
                0x01648fa0                _tnl_texture_transform_stage
 .data          0x01648fb8       0x14 /home/kosmick/chiffos/ChiffOS/libc/libOSMesa32.a(t_vb_vertex.o)
 .rodata        0x01648fcc       0x3c /home/kosmick/chiffos/ChiffOS/libc/libOSMesa32.a(t_vb_vertex.o)
                0x01648ff0                _tnl_vertex_transform_stage
 .data          0x01649008        0x0 /home/kosmick/chiffos/ChiffOS/libc/libOSMesa32.a(t_vb_fog.o)
 .rodata        0x01649008       0x6c /home/kosmick/chiffos/ChiffOS/libc/libOSMesa32.a(t_vb_fog.o)
                0x01649040                _tnl_fog_coordinate_stage
 .data          0x01649074        0x0 /home/kosmick/chiffos/ChiffOS/libc/libOSMesa32.a(t_vb_light.o)
 *fill*         0x01649074        0x4 
 .rodata        0x01649078       0x5c /home/kosmick/chiffos/ChiffOS/libc/libOSMesa32.a(t_vb_light.o)
                0x01649084                _tnl_lighting_stage
 .data          0x016490d4        0x0 /home/kosmick/chiffos/ChiffOS/libc/libOSMesa32.a(t_vb_normals.o)
 .rodata        0x016490d4       0x2c /home/kosmick/chiffos/ChiffOS/libc/libOSMesa32.a(t_vb_normals.o)
                0x016490e8                _tnl_normal_transform_stage
 .data          0x01649100        0x0 /home/kosmick/chiffos/ChiffOS/libc/libOSMesa32.a(t_vb_points.o)
 .rodata        0x01649100       0x30 /home/kosmick/chiffos/ChiffOS/libc/libOSMesa32.a(t_vb_points.o)
                0x01649118                _tnl_point_attenuation_stage
 .data          0x01649130        0x0 /home/kosmick/chiffos/ChiffOS/libc/libOSMesa32.a(t_vp_build.o)
 .data          0x01649130        0x0 /home/kosmick/chiffos/ChiffOS/libc/libOSMesa32.a(t_vertex.o)
 .rodata        0x01649130       0xe8 /home/kosmick/chiffos/ChiffOS/libc/libOSMesa32.a(t_vertex.o)
 .data          0x01649218        0x0 /home/kosmick/chiffos/ChiffOS/libc/libOSMesa32.a(t_vertex_generic.o)
 *fill*         0x01649218        0x8 
 .rodata        0x01649220      0x328 /home/kosmick/chiffos/ChiffOS/libc/libOSMesa32.a(t_vertex_generic.o)
                0x016492c0                _tnl_format_info
 .data          0x01649548        0x0 /home/kosmick/chiffos/ChiffOS/libc/libOSMesa32.a(arbprogram.o)
 .rodata        0x01649548      0x428 /home/kosmick/chiffos/ChiffOS/libc/libOSMesa32.a(arbprogram.o)
 .data          0x01649970        0x0 /home/kosmick/chiffos/ChiffOS/libc/libOSMesa32.a(atifragshader.o)
 .rodata        0x01649970      0x350 /home/kosmick/chiffos/ChiffOS/libc/libOSMesa32.a(atifragshader.o)
 .data          0x01649cc0        0x0 /home/kosmick/chiffos/ChiffOS/libc/libOSMesa32.a(nvprogram.o)
 .rodata        0x01649cc0      0x465 /home/kosmick/chiffos/ChiffOS/libc/libOSMesa32.a(nvprogram.o)
 *fill*         0x0164a125       0x1b 
 .data          0x0164a140       0xa0 /home/kosmick/chiffos/ChiffOS/libc/libOSMesa32.a(nvvertparse.o)
 .rodata        0x0164a1e0      0x538 /home/kosmick/chiffos/ChiffOS/libc/libOSMesa32.a(nvvertparse.o)
 .data          0x0164a718        0x0 /home/kosmick/chiffos/ChiffOS/libc/libOSMesa32.a(program.o)
 *fill*         0x0164a718        0x8 
 .rodata        0x0164a720      0x241 /home/kosmick/chiffos/ChiffOS/libc/libOSMesa32.a(program.o)
 *fill*         0x0164a961        0x3 
 .data          0x0164a964        0x0 /home/kosmick/chiffos/ChiffOS/libc/libOSMesa32.a(prog_cache.o)
 *fill*         0x0164a964        0x4 
 .rodata        0x0164a968       0x38 /home/kosmick/chiffos/ChiffOS/libc/libOSMesa32.a(prog_cache.o)
 .data          0x0164a9a0        0x0 /home/kosmick/chiffos/ChiffOS/libc/libOSMesa32.a(prog_execute.o)
 .rodata        0x0164a9a0      0x368 /home/kosmick/chiffos/ChiffOS/libc/libOSMesa32.a(prog_execute.o)
 .data          0x0164ad08        0x0 /home/kosmick/chiffos/ChiffOS/libc/libOSMesa32.a(prog_instruction.o)
 *fill*         0x0164ad08       0x18 
 .rodata        0x0164ad20      0x794 /home/kosmick/chiffos/ChiffOS/libc/libOSMesa32.a(prog_instruction.o)
 *fill*         0x0164b4b4        0xc 
 .data          0x0164b4c0      0x300 /home/kosmick/chiffos/ChiffOS/libc/libOSMesa32.a(prog_noise.o)
                0x0164b4c0                perm
 .rodata        0x0164b7c0       0x48 /home/kosmick/chiffos/ChiffOS/libc/libOSMesa32.a(prog_noise.o)
 .data          0x0164b808        0x0 /home/kosmick/chiffos/ChiffOS/libc/libOSMesa32.a(prog_parameter.o)
 *fill*         0x0164b808       0x18 
 .rodata        0x0164b820       0x84 /home/kosmick/chiffos/ChiffOS/libc/libOSMesa32.a(prog_parameter.o)
 .data          0x0164b8a4        0x0 /home/kosmick/chiffos/ChiffOS/libc/libOSMesa32.a(prog_statevars.o)
 *fill*         0x0164b8a4        0x4 
 .rodata        0x0164b8a8      0x940 /home/kosmick/chiffos/ChiffOS/libc/libOSMesa32.a(prog_statevars.o)
 .data          0x0164c1e8        0x0 /home/kosmick/chiffos/ChiffOS/libc/libOSMesa32.a(programopt.o)
 *fill*         0x0164c1e8       0x18 
 .rodata        0x0164c200      0x288 /home/kosmick/chiffos/ChiffOS/libc/libOSMesa32.a(programopt.o)
 .data          0x0164c488        0x0 /home/kosmick/chiffos/ChiffOS/libc/libOSMesa32.a(shader_api.o)
 *fill*         0x0164c488       0x18 
 .rodata        0x0164c4a0      0x6c0 /home/kosmick/chiffos/ChiffOS/libc/libOSMesa32.a(shader_api.o)
 .data          0x0164cb60        0x0 /home/kosmick/chiffos/ChiffOS/libc/libOSMesa32.a(s_context.o)
 .rodata        0x0164cb60        0xc /home/kosmick/chiffos/ChiffOS/libc/libOSMesa32.a(s_context.o)
 .data          0x0164cb6c        0x0 /home/kosmick/chiffos/ChiffOS/libc/libOSMesa32.a(s_lines.o)
 .rodata        0x0164cb6c        0xc /home/kosmick/chiffos/ChiffOS/libc/libOSMesa32.a(s_lines.o)
 .data          0x0164cb78        0x0 /home/kosmick/chiffos/ChiffOS/libc/libOSMesa32.a(s_points.o)
 .rodata        0x0164cb78       0x60 /home/kosmick/chiffos/ChiffOS/libc/libOSMesa32.a(s_points.o)
 .data          0x0164cbd8        0x0 /home/kosmick/chiffos/ChiffOS/libc/libOSMesa32.a(s_span.o)
 .rodata        0x0164cbd8       0xf0 /home/kosmick/chiffos/ChiffOS/libc/libOSMesa32.a(s_span.o)
 .data          0x0164ccc8        0x0 /home/kosmick/chiffos/ChiffOS/libc/libOSMesa32.a(s_stencil.o)
 .rodata        0x0164ccc8       0xdc /home/kosmick/chiffos/ChiffOS/libc/libOSMesa32.a(s_stencil.o)
 .data          0x0164cda4        0x0 /home/kosmick/chiffos/ChiffOS/libc/libOSMesa32.a(s_texcombine.o)
 *fill*         0x0164cda4        0x4 
 .rodata        0x0164cda8       0x48 /home/kosmick/chiffos/ChiffOS/libc/libOSMesa32.a(s_texcombine.o)
 .data          0x0164cdf0        0x0 /home/kosmick/chiffos/ChiffOS/libc/libOSMesa32.a(s_texfilter.o)
 .rodata        0x0164cdf0      0x2f8 /home/kosmick/chiffos/ChiffOS/libc/libOSMesa32.a(s_texfilter.o)
 .data          0x0164d0e8        0x0 /home/kosmick/chiffos/ChiffOS/libc/libOSMesa32.a(s_triangle.o)
 .rodata        0x0164d0e8       0x18 /home/kosmick/chiffos/ChiffOS/libc/libOSMesa32.a(s_triangle.o)
 .data          0x0164d100        0x0 /home/kosmick/chiffos/ChiffOS/libc/libOSMesa32.a(ss_context.o)
 .data          0x0164d100        0x0 /home/kosmick/chiffos/ChiffOS/libc/libOSMesa32.a(ss_triangle.o)
 .rodata        0x0164d100        0xc /home/kosmick/chiffos/ChiffOS/libc/libOSMesa32.a(ss_triangle.o)
 .data          0x0164d10c        0x0 /home/kosmick/chiffos/ChiffOS/libc/libOSMesa32.a(driverfuncs.o)
 .data          0x0164d10c        0x4 /home/kosmick/chiffos/ChiffOS/libc/libOSMesa32.a(slang_compile.o)
 *fill*         0x0164d110       0x10 
 .rodata        0x0164d120    0x1f8c8 /home/kosmick/chiffos/ChiffOS/libc/libOSMesa32.a(slang_compile.o)
 .data          0x0166c9e8        0x0 /home/kosmick/chiffos/ChiffOS/libc/libOSMesa32.a(slang_compile_function.o)
 .rodata        0x0166c9e8       0x4d /home/kosmick/chiffos/ChiffOS/libc/libOSMesa32.a(slang_compile_function.o)
 *fill*         0x0166ca35        0x3 
 .data          0x0166ca38        0x0 /home/kosmick/chiffos/ChiffOS/libc/libOSMesa32.a(slang_compile_operation.o)
 .rodata        0x0166ca38      0x154 /home/kosmick/chiffos/ChiffOS/libc/libOSMesa32.a(slang_compile_operation.o)
 .data          0x0166cb8c        0x0 /home/kosmick/chiffos/ChiffOS/libc/libOSMesa32.a(slang_compile_struct.o)
 .data          0x0166cb8c        0x0 /home/kosmick/chiffos/ChiffOS/libc/libOSMesa32.a(slang_compile_variable.o)
 .data          0x0166cb8c        0x0 /home/kosmick/chiffos/ChiffOS/libc/libOSMesa32.a(slang_link.o)
 .rodata        0x0166cb8c      0x38d /home/kosmick/chiffos/ChiffOS/libc/libOSMesa32.a(slang_link.o)
 *fill*         0x0166cf19        0x3 
 .data          0x0166cf1c        0x4 /home/kosmick/chiffos/ChiffOS/libc/libOSMesa32.a(slang_log.o)
 .rodata        0x0166cf20       0x39 /home/kosmick/chiffos/ChiffOS/libc/libOSMesa32.a(slang_log.o)
 *fill*         0x0166cf59        0x3 
 .data          0x0166cf5c        0x0 /home/kosmick/chiffos/ChiffOS/libc/libOSMesa32.a(slang_mem.o)
 .data          0x0166cf5c       0x1c /home/kosmick/chiffos/ChiffOS/libc/libOSMesa32.a(slang_preprocess.o)
 .rodata        0x0166cf78     0x436f /home/kosmick/chiffos/ChiffOS/libc/libOSMesa32.a(slang_preprocess.o)
 *fill*         0x016712e7        0x1 
 .data          0x016712e8        0x0 /home/kosmick/chiffos/ChiffOS/libc/libOSMesa32.a(slang_simplify.o)
 *fill*         0x016712e8       0x18 
 .rodata        0x01671300      0x338 /home/kosmick/chiffos/ChiffOS/libc/libOSMesa32.a(slang_simplify.o)
 .data          0x01671638        0x0 /home/kosmick/chiffos/ChiffOS/libc/libOSMesa32.a(slang_storage.o)
 .rodata        0x01671638       0x80 /home/kosmick/chiffos/ChiffOS/libc/libOSMesa32.a(slang_storage.o)
 .data          0x016716b8        0x0 /home/kosmick/chiffos/ChiffOS/libc/libOSMesa32.a(slang_typeinfo.o)
 *fill*         0x016716b8        0x8 
 .rodata        0x016716c0      0x6dd /home/kosmick/chiffos/ChiffOS/libc/libOSMesa32.a(slang_typeinfo.o)
 *fill*         0x01671d9d        0x3 
 .data          0x01671da0        0x0 /home/kosmick/chiffos/ChiffOS/libc/libOSMesa32.a(slang_vartable.o)
 .rodata        0x01671da0      0x32f /home/kosmick/chiffos/ChiffOS/libc/libOSMesa32.a(slang_vartable.o)
 *fill*         0x016720cf        0x1 
 .data          0x016720d0        0x0 /home/kosmick/chiffos/ChiffOS/libc/libOSMesa32.a(slang_utility.o)
 .rodata        0x016720d0       0x37 /home/kosmick/chiffos/ChiffOS/libc/libOSMesa32.a(slang_utility.o)
 *fill*         0x01672107        0x1 
 .data          0x01672108        0x0 /home/kosmick/chiffos/ChiffOS/libc/libOSMesa32.a(dispatch.o)
 *fill*         0x01672108       0x18 
 .data          0x01672120     0x11d0 /home/kosmick/chiffos/ChiffOS/libc/libOSMesa32.a(glapi.o)
                0x016732ec                _glapi_Dispatch
 .rodata        0x016732f0     0x2fed /home/kosmick/chiffos/ChiffOS/libc/libOSMesa32.a(glapi.o)
 *fill*         0x016762dd        0x3 
 .data          0x016762e0        0x4 /home/kosmick/chiffos/ChiffOS/libc/libOSMesa32.a(glapi_getproc.o)
 *fill*         0x016762e4       0x1c 
 .rodata        0x01676300     0x7df9 /home/kosmick/chiffos/ChiffOS/libc/libOSMesa32.a(glapi_getproc.o)
 *fill*         0x0167e0f9        0x7 
 .data          0x0167e100      0x200 /home/kosmick/chiffos/ChiffOS/libc/libOSMesa32.a(api_arrayelt.o)
 .rodata        0x0167e300      0x1c0 /home/kosmick/chiffos/ChiffOS/libc/libOSMesa32.a(api_arrayelt.o)
 .data          0x0167e4c0        0x0 /home/kosmick/chiffos/ChiffOS/libc/libOSMesa32.a(api_exec.o)
 .data          0x0167e4c0        0x0 /home/kosmick/chiffos/ChiffOS/libc/libOSMesa32.a(api_loopback.o)
 .rodata        0x0167e4c0       0x20 /home/kosmick/chiffos/ChiffOS/libc/libOSMesa32.a(api_loopback.o)
 .data          0x0167e4e0        0x0 /home/kosmick/chiffos/ChiffOS/libc/libOSMesa32.a(api_noop.o)
 .rodata        0x0167e4e0      0x230 /home/kosmick/chiffos/ChiffOS/libc/libOSMesa32.a(api_noop.o)
 .data          0x0167e710        0x0 /home/kosmick/chiffos/ChiffOS/libc/libOSMesa32.a(api_validate.o)
 .rodata        0x0167e710      0x1bd /home/kosmick/chiffos/ChiffOS/libc/libOSMesa32.a(api_validate.o)
 *fill*         0x0167e8cd        0x3 
 .data          0x0167e8d0        0x0 /home/kosmick/chiffos/ChiffOS/libc/libOSMesa32.a(accum.o)
 .rodata        0x0167e8d0       0x90 /home/kosmick/chiffos/ChiffOS/libc/libOSMesa32.a(accum.o)
 .data          0x0167e960        0x0 /home/kosmick/chiffos/ChiffOS/libc/libOSMesa32.a(attrib.o)
 .rodata        0x0167e960       0xb3 /home/kosmick/chiffos/ChiffOS/libc/libOSMesa32.a(attrib.o)
 *fill*         0x0167ea13        0x1 
 .data          0x0167ea14        0x0 /home/kosmick/chiffos/ChiffOS/libc/libOSMesa32.a(arrayobj.o)
 .rodata        0x0167ea14       0x80 /home/kosmick/chiffos/ChiffOS/libc/libOSMesa32.a(arrayobj.o)
 .data          0x0167ea94        0x0 /home/kosmick/chiffos/ChiffOS/libc/libOSMesa32.a(blend.o)
 .rodata        0x0167ea94      0x1b8 /home/kosmick/chiffos/ChiffOS/libc/libOSMesa32.a(blend.o)
 .data          0x0167ec4c        0x0 /home/kosmick/chiffos/ChiffOS/libc/libOSMesa32.a(bufferobj.o)
 .rodata        0x0167ec4c      0x2ba /home/kosmick/chiffos/ChiffOS/libc/libOSMesa32.a(bufferobj.o)
 *fill*         0x0167ef06        0x2 
 .data          0x0167ef08        0x0 /home/kosmick/chiffos/ChiffOS/libc/libOSMesa32.a(buffers.o)
 .rodata        0x0167ef08       0xc2 /home/kosmick/chiffos/ChiffOS/libc/libOSMesa32.a(buffers.o)
 *fill*         0x0167efca        0x2 
 .data          0x0167efcc        0x0 /home/kosmick/chiffos/ChiffOS/libc/libOSMesa32.a(clear.o)
 .rodata        0x0167efcc       0x4c /home/kosmick/chiffos/ChiffOS/libc/libOSMesa32.a(clear.o)
 .data          0x0167f018        0x0 /home/kosmick/chiffos/ChiffOS/libc/libOSMesa32.a(clip.o)
 .rodata        0x0167f018       0x45 /home/kosmick/chiffos/ChiffOS/libc/libOSMesa32.a(clip.o)
 *fill*         0x0167f05d        0x3 
 .data          0x0167f060        0x0 /home/kosmick/chiffos/ChiffOS/libc/libOSMesa32.a(colortab.o)
 .rodata        0x0167f060      0x440 /home/kosmick/chiffos/ChiffOS/libc/libOSMesa32.a(colortab.o)
 .data          0x0167f4a0        0x0 /home/kosmick/chiffos/ChiffOS/libc/libOSMesa32.a(convolve.o)
 .rodata        0x0167f4a0      0x7ec /home/kosmick/chiffos/ChiffOS/libc/libOSMesa32.a(convolve.o)
 .data          0x0167fc8c        0x0 /home/kosmick/chiffos/ChiffOS/libc/libOSMesa32.a(depthstencil.o)
 .data          0x0167fc8c        0x0 /home/kosmick/chiffos/ChiffOS/libc/libOSMesa32.a(dlopen.o)
 .data          0x0167fc8c        0x0 /home/kosmick/chiffos/ChiffOS/libc/libOSMesa32.a(drawpix.o)
 *fill*         0x0167fc8c        0x4 
 .rodata        0x0167fc90      0x224 /home/kosmick/chiffos/ChiffOS/libc/libOSMesa32.a(drawpix.o)
 .data          0x0167feb4        0x0 /home/kosmick/chiffos/ChiffOS/libc/libOSMesa32.a(enable.o)
 .rodata        0x0167feb4       0xfd /home/kosmick/chiffos/ChiffOS/libc/libOSMesa32.a(enable.o)
 *fill*         0x0167ffb1        0x3 
 .data          0x0167ffb4        0x0 /home/kosmick/chiffos/ChiffOS/libc/libOSMesa32.a(execmem.o)
 .data          0x0167ffb4        0x0 /home/kosmick/chiffos/ChiffOS/libc/libOSMesa32.a(ffvertex_prog.o)
 *fill*         0x0167ffb4        0xc 
 .rodata        0x0167ffc0      0x2bc /home/kosmick/chiffos/ChiffOS/libc/libOSMesa32.a(ffvertex_prog.o)
 .data          0x0168027c        0x0 /home/kosmick/chiffos/ChiffOS/libc/libOSMesa32.a(get.o)
 *fill*         0x0168027c        0x4 
 .rodata        0x01680280      0x100 /home/kosmick/chiffos/ChiffOS/libc/libOSMesa32.a(get.o)
 .data          0x01680380        0x0 /home/kosmick/chiffos/ChiffOS/libc/libOSMesa32.a(mipmap.o)
 .rodata        0x01680380      0x188 /home/kosmick/chiffos/ChiffOS/libc/libOSMesa32.a(mipmap.o)
 .data          0x01680508        0x0 /home/kosmick/chiffos/ChiffOS/libc/libOSMesa32.a(rbadaptors.o)
 .rodata        0x01680508       0x14 /home/kosmick/chiffos/ChiffOS/libc/libOSMesa32.a(rbadaptors.o)
 .data          0x0168051c        0x0 /home/kosmick/chiffos/ChiffOS/libc/libOSMesa32.a(readpix.o)
 .rodata        0x0168051c      0x23d /home/kosmick/chiffos/ChiffOS/libc/libOSMesa32.a(readpix.o)
 *fill*         0x01680759        0x3 
 .data          0x0168075c        0x0 /home/kosmick/chiffos/ChiffOS/libc/libOSMesa32.a(shaders.o)
 .rodata        0x0168075c       0x7f /home/kosmick/chiffos/ChiffOS/libc/libOSMesa32.a(shaders.o)
 *fill*         0x016807db        0x1 
 .data          0x016807dc        0x0 /home/kosmick/chiffos/ChiffOS/libc/libOSMesa32.a(texcompress.o)
 .rodata        0x016807dc      0x10c /home/kosmick/chiffos/ChiffOS/libc/libOSMesa32.a(texcompress.o)
 .data          0x016808e8        0x0 /home/kosmick/chiffos/ChiffOS/libc/libOSMesa32.a(texenv.o)
 .rodata        0x016808e8      0x268 /home/kosmick/chiffos/ChiffOS/libc/libOSMesa32.a(texenv.o)
 .data          0x01680b50        0x0 /home/kosmick/chiffos/ChiffOS/libc/libOSMesa32.a(texformat.o)
 *fill*         0x01680b50       0x10 
 .rodata        0x01680b60     0x1028 /home/kosmick/chiffos/ChiffOS/libc/libOSMesa32.a(texformat.o)
                0x01680bc0                _mesa_texformat_rgba
                0x01680c00                _mesa_texformat_rgb
                0x01680c40                _mesa_texformat_alpha
                0x01680c80                _mesa_texformat_luminance
                0x01680cc0                _mesa_texformat_luminance_alpha
                0x01680d00                _mesa_texformat_intensity
                0x01680d40                _mesa_texformat_srgb8
                0x01680d80                _mesa_texformat_srgba8
                0x01680dc0                _mesa_texformat_sargb8
                0x01680e00                _mesa_texformat_sl8
                0x01680e40                _mesa_texformat_sla8
                0x01680e80                _mesa_texformat_rgba_float32
                0x01680ec0                _mesa_texformat_rgba_float16
                0x01680f00                _mesa_texformat_rgb_float32
                0x01680f40                _mesa_texformat_rgb_float16
                0x01680f80                _mesa_texformat_alpha_float32
                0x01680fc0                _mesa_texformat_alpha_float16
                0x01681000                _mesa_texformat_luminance_float32
                0x01681040                _mesa_texformat_luminance_float16
                0x01681080                _mesa_texformat_luminance_alpha_float32
                0x016810c0                _mesa_texformat_luminance_alpha_float16
                0x01681100                _mesa_texformat_intensity_float32
                0x01681140                _mesa_texformat_intensity_float16
                0x01681180                _mesa_texformat_dudv8
                0x016811c0                _mesa_texformat_signed_rgba8888
                0x01681200                _mesa_texformat_signed_rgba8888_rev
                0x01681240                _mesa_texformat_rgba8888
                0x01681280                _mesa_texformat_rgba8888_rev
                0x016812c0                _mesa_texformat_argb8888
                0x01681300                _mesa_texformat_argb8888_rev
                0x01681340                _mesa_texformat_rgb888
                0x01681380                _mesa_texformat_bgr888
                0x016813c0                _mesa_texformat_rgb565
                0x01681400                _mesa_texformat_rgb565_rev
                0x01681440                _mesa_texformat_rgba4444
                0x01681480                _mesa_texformat_argb4444
                0x016814c0                _mesa_texformat_argb4444_rev
                0x01681500                _mesa_texformat_rgba5551
                0x01681540                _mesa_texformat_argb1555
                0x01681580                _mesa_texformat_argb1555_rev
                0x016815c0                _mesa_texformat_al88
                0x01681600                _mesa_texformat_al88_rev
                0x01681640                _mesa_texformat_rgb332
                0x01681680                _mesa_texformat_a8
                0x016816c0                _mesa_texformat_l8
                0x01681700                _mesa_texformat_i8
                0x01681740                _mesa_texformat_ci8
                0x01681780                _mesa_texformat_ycbcr
                0x016817c0                _mesa_texformat_ycbcr_rev
                0x01681800                _mesa_texformat_z24_s8
                0x01681840                _mesa_texformat_s8_z24
                0x01681880                _mesa_texformat_z16
                0x016818c0                _mesa_texformat_z32
                0x01681900                _mesa_null_texformat
 .data          0x01681b88        0x0 /home/kosmick/chiffos/ChiffOS/libc/libOSMesa32.a(texgen.o)
 .rodata        0x01681b88      0x138 /home/kosmick/chiffos/ChiffOS/libc/libOSMesa32.a(texgen.o)
 .data          0x01681cc0        0x0 /home/kosmick/chiffos/ChiffOS/libc/libOSMesa32.a(texgetimage.o)
 .rodata        0x01681cc0      0x120 /home/kosmick/chiffos/ChiffOS/libc/libOSMesa32.a(texgetimage.o)
 .data          0x01681de0        0x0 /home/kosmick/chiffos/ChiffOS/libc/libOSMesa32.a(texparam.o)
 .rodata        0x01681de0      0x3d0 /home/kosmick/chiffos/ChiffOS/libc/libOSMesa32.a(texparam.o)
 .data          0x016821b0        0x0 /home/kosmick/chiffos/ChiffOS/libc/libOSMesa32.a(texrender.o)
 .rodata        0x016821b0      0x128 /home/kosmick/chiffos/ChiffOS/libc/libOSMesa32.a(texrender.o)
 .data          0x016822d8        0x0 /home/kosmick/chiffos/ChiffOS/libc/libOSMesa32.a(m_eval.o)
 .data          0x016822d8        0x0 /home/kosmick/chiffos/ChiffOS/libc/libOSMesa32.a(m_translate.o)
 .rodata        0x016822d8       0x40 /home/kosmick/chiffos/ChiffOS/libc/libOSMesa32.a(m_translate.o)
 .data          0x01682318        0x0 /home/kosmick/chiffos/ChiffOS/libc/libOSMesa32.a(m_vector.o)
 .rodata        0x01682318       0xe4 /home/kosmick/chiffos/ChiffOS/libc/libOSMesa32.a(m_vector.o)
 .data          0x016823fc        0x0 /home/kosmick/chiffos/ChiffOS/libc/libOSMesa32.a(m_xform.o)
 *fill*         0x016823fc        0x4 
 .rodata        0x01682400       0x18 /home/kosmick/chiffos/ChiffOS/libc/libOSMesa32.a(m_xform.o)
 .data          0x01682418        0x0 /home/kosmick/chiffos/ChiffOS/libc/libOSMesa32.a(vbo_rebase.o)
 .rodata        0x01682418       0x4c /home/kosmick/chiffos/ChiffOS/libc/libOSMesa32.a(vbo_rebase.o)
 .data          0x01682464        0x0 /home/kosmick/chiffos/ChiffOS/libc/libOSMesa32.a(vbo_split.o)
 .rodata        0x01682464       0x46 /home/kosmick/chiffos/ChiffOS/libc/libOSMesa32.a(vbo_split.o)
 *fill*         0x016824aa        0x2 
 .data          0x016824ac        0x0 /home/kosmick/chiffos/ChiffOS/libc/libOSMesa32.a(vbo_split_copy.o)
 .rodata        0x016824ac       0xdd /home/kosmick/chiffos/ChiffOS/libc/libOSMesa32.a(vbo_split_copy.o)
 *fill*         0x01682589        0x3 
 .data          0x0168258c        0x0 /home/kosmick/chiffos/ChiffOS/libc/libOSMesa32.a(vbo_split_inplace.o)
 .rodata        0x0168258c       0xa9 /home/kosmick/chiffos/ChiffOS/libc/libOSMesa32.a(vbo_split_inplace.o)
 *fill*         0x01682635        0x3 
 .data          0x01682638        0x0 /home/kosmick/chiffos/ChiffOS/libc/libOSMesa32.a(t_rasterpos.o)
 .rodata        0x01682638       0xf4 /home/kosmick/chiffos/ChiffOS/libc/libOSMesa32.a(t_rasterpos.o)
 *fill*         0x0168272c       0x14 
 .data          0x01682740     0xe130 /home/kosmick/chiffos/ChiffOS/libc/libOSMesa32.a(arbprogparse.o)
 .rodata        0x01690870      0xec0 /home/kosmick/chiffos/ChiffOS/libc/libOSMesa32.a(arbprogparse.o)
 .data          0x01691730       0x1c /home/kosmick/chiffos/ChiffOS/libc/libOSMesa32.a(grammar_mesa.o)
 .rodata        0x0169174c      0x32b /home/kosmick/chiffos/ChiffOS/libc/libOSMesa32.a(grammar_mesa.o)
 *fill*         0x01691a77        0x9 
 .data          0x01691a80       0x34 /home/kosmick/chiffos/ChiffOS/libc/libOSMesa32.a(nvfragparse.o)
 *fill*         0x01691ab4        0xc 
 .rodata        0x01691ac0      0xa4c /home/kosmick/chiffos/ChiffOS/libc/libOSMesa32.a(nvfragparse.o)
 .data          0x0169250c        0x0 /home/kosmick/chiffos/ChiffOS/libc/libOSMesa32.a(prog_optimize.o)
 .rodata        0x0169250c      0x38d /home/kosmick/chiffos/ChiffOS/libc/libOSMesa32.a(prog_optimize.o)
 *fill*         0x01692899        0x3 
 .data          0x0169289c        0x0 /home/kosmick/chiffos/ChiffOS/libc/libOSMesa32.a(prog_print.o)
 *fill*         0x0169289c        0x4 
 .rodata        0x016928a0      0xf84 /home/kosmick/chiffos/ChiffOS/libc/libOSMesa32.a(prog_print.o)
 .data          0x01693824        0x0 /home/kosmick/chiffos/ChiffOS/libc/libOSMesa32.a(prog_uniform.o)
 .rodata        0x01693824       0x90 /home/kosmick/chiffos/ChiffOS/libc/libOSMesa32.a(prog_uniform.o)
 .data          0x016938b4        0x0 /home/kosmick/chiffos/ChiffOS/libc/libOSMesa32.a(s_aaline.o)
 *fill*         0x016938b4        0x4 
 .rodata        0x016938b8       0x2c /home/kosmick/chiffos/ChiffOS/libc/libOSMesa32.a(s_aaline.o)
 .data          0x016938e4        0x0 /home/kosmick/chiffos/ChiffOS/libc/libOSMesa32.a(s_aatriangle.o)
 *fill*         0x016938e4       0x1c 
 .rodata        0x01693900      0x120 /home/kosmick/chiffos/ChiffOS/libc/libOSMesa32.a(s_aatriangle.o)
 .data          0x01693a20        0x0 /home/kosmick/chiffos/ChiffOS/libc/libOSMesa32.a(s_accum.o)
 .rodata        0x01693a20      0x1bc /home/kosmick/chiffos/ChiffOS/libc/libOSMesa32.a(s_accum.o)
 .data          0x01693bdc        0x0 /home/kosmick/chiffos/ChiffOS/libc/libOSMesa32.a(s_alpha.o)
 .rodata        0x01693bdc       0xcc /home/kosmick/chiffos/ChiffOS/libc/libOSMesa32.a(s_alpha.o)
 *fill*         0x01693ca8       0x18 
 .data          0x01693cc0       0x58 /home/kosmick/chiffos/ChiffOS/libc/libOSMesa32.a(s_atifragshader.o)
                0x01693cc0                ati_fs_opcodes
 .rodata        0x01693d18       0xd8 /home/kosmick/chiffos/ChiffOS/libc/libOSMesa32.a(s_atifragshader.o)
 .data          0x01693df0        0x0 /home/kosmick/chiffos/ChiffOS/libc/libOSMesa32.a(s_bitmap.o)
 .data          0x01693df0        0x0 /home/kosmick/chiffos/ChiffOS/libc/libOSMesa32.a(s_blend.o)
 .rodata        0x01693df0      0x144 /home/kosmick/chiffos/ChiffOS/libc/libOSMesa32.a(s_blend.o)
 .data          0x01693f34        0x0 /home/kosmick/chiffos/ChiffOS/libc/libOSMesa32.a(s_blit.o)
 *fill*         0x01693f34        0x4 
 .rodata        0x01693f38      0x16c /home/kosmick/chiffos/ChiffOS/libc/libOSMesa32.a(s_blit.o)
 .data          0x016940a4        0x0 /home/kosmick/chiffos/ChiffOS/libc/libOSMesa32.a(s_clear.o)
 .rodata        0x016940a4       0x38 /home/kosmick/chiffos/ChiffOS/libc/libOSMesa32.a(s_clear.o)
 .data          0x016940dc        0x0 /home/kosmick/chiffos/ChiffOS/libc/libOSMesa32.a(s_copypix.o)
 .rodata        0x016940dc       0x36 /home/kosmick/chiffos/ChiffOS/libc/libOSMesa32.a(s_copypix.o)
 *fill*         0x01694112        0x2 
 .data          0x01694114        0x0 /home/kosmick/chiffos/ChiffOS/libc/libOSMesa32.a(s_depth.o)
 .rodata        0x01694114      0x1c0 /home/kosmick/chiffos/ChiffOS/libc/libOSMesa32.a(s_depth.o)
 .data          0x016942d4        0x0 /home/kosmick/chiffos/ChiffOS/libc/libOSMesa32.a(s_drawpix.o)
 .rodata        0x016942d4       0x38 /home/kosmick/chiffos/ChiffOS/libc/libOSMesa32.a(s_drawpix.o)
 .data          0x0169430c        0x0 /home/kosmick/chiffos/ChiffOS/libc/libOSMesa32.a(s_feedback.o)
 .rodata        0x0169430c        0xc /home/kosmick/chiffos/ChiffOS/libc/libOSMesa32.a(s_feedback.o)
 .data          0x01694318        0x0 /home/kosmick/chiffos/ChiffOS/libc/libOSMesa32.a(s_fog.o)
 .rodata        0x01694318       0x88 /home/kosmick/chiffos/ChiffOS/libc/libOSMesa32.a(s_fog.o)
 .data          0x016943a0        0x0 /home/kosmick/chiffos/ChiffOS/libc/libOSMesa32.a(s_fragprog.o)
 .rodata        0x016943a0        0xc /home/kosmick/chiffos/ChiffOS/libc/libOSMesa32.a(s_fragprog.o)
 .data          0x016943ac        0x0 /home/kosmick/chiffos/ChiffOS/libc/libOSMesa32.a(s_imaging.o)
 .data          0x016943ac        0x0 /home/kosmick/chiffos/ChiffOS/libc/libOSMesa32.a(s_logic.o)
 .rodata        0x016943ac       0xd4 /home/kosmick/chiffos/ChiffOS/libc/libOSMesa32.a(s_logic.o)
 .data          0x01694480        0x0 /home/kosmick/chiffos/ChiffOS/libc/libOSMesa32.a(s_masking.o)
 .data          0x01694480        0x0 /home/kosmick/chiffos/ChiffOS/libc/libOSMesa32.a(s_readpix.o)
 .rodata        0x01694480       0x40 /home/kosmick/chiffos/ChiffOS/libc/libOSMesa32.a(s_readpix.o)
 .data          0x016944c0        0x0 /home/kosmick/chiffos/ChiffOS/libc/libOSMesa32.a(s_texstore.o)
 .rodata        0x016944c0       0x5e /home/kosmick/chiffos/ChiffOS/libc/libOSMesa32.a(s_texstore.o)
 *fill*         0x0169451e        0x2 
 .data          0x01694520        0x0 /home/kosmick/chiffos/ChiffOS/libc/libOSMesa32.a(s_zoom.o)
 .rodata        0x01694520       0x1c /home/kosmick/chiffos/ChiffOS/libc/libOSMesa32.a(s_zoom.o)
 *fill*         0x0169453c        0x4 
 .data          0x01694540      0x438 /home/kosmick/chiffos/ChiffOS/libc/libOSMesa32.a(slang_codegen.o)
 *fill*         0x01694978        0x8 
 .rodata        0x01694980     0x1dbc /home/kosmick/chiffos/ChiffOS/libc/libOSMesa32.a(slang_codegen.o)
                0x016949c4                MAX_FOR_LOOP_UNROLL_ITERATIONS
                0x016949c8                MAX_FOR_LOOP_UNROLL_BODY_SIZE
                0x016949cc                MAX_FOR_LOOP_UNROLL_COMPLEXITY
 .data          0x0169673c        0x0 /home/kosmick/chiffos/ChiffOS/libc/libOSMesa32.a(slang_emit.o)
 *fill*         0x0169673c        0x4 
 .rodata        0x01696740      0xaf4 /home/kosmick/chiffos/ChiffOS/libc/libOSMesa32.a(slang_emit.o)
 *fill*         0x01697234        0xc 
 .data          0x01697240       0x38 /home/kosmick/chiffos/ChiffOS/libc/libOSMesa32.a(slang_ir.o)
 *fill*         0x01697278        0x8 
 .rodata        0x01697280      0xb01 /home/kosmick/chiffos/ChiffOS/libc/libOSMesa32.a(slang_ir.o)
 *fill*         0x01697d81        0x3 
 .data          0x01697d84        0x4 /home/kosmick/chiffos/ChiffOS/libc/libOSMesa32.a(slang_label.o)
 .rodata        0x01697d88       0x74 /home/kosmick/chiffos/ChiffOS/libc/libOSMesa32.a(slang_label.o)
 .data          0x01697dfc        0x0 /home/kosmick/chiffos/ChiffOS/libc/libOSMesa32.a(slang_print.o)
 .rodata        0x01697dfc      0x8f2 /home/kosmick/chiffos/ChiffOS/libc/libOSMesa32.a(slang_print.o)
 *fill*         0x016986ee        0x2 
 .data          0x016986f0        0x0 /home/kosmick/chiffos/ChiffOS/libc/libOSMesa32.a(slang_builtin.o)
 *fill*         0x016986f0       0x10 
 .rodata        0x01698700      0x70d /home/kosmick/chiffos/ChiffOS/libc/libOSMesa32.a(slang_builtin.o)
 *fill*         0x01698e0d        0x3 
 .data          0x01698e10        0x0 /home/kosmick/chiffos/ChiffOS/libc/libc.a(lib_a-assert.o)
 .data          0x01698e10        0x0 /home/kosmick/chiffos/ChiffOS/libc/libc.a(lib_a-atoi.o)
 .data          0x01698e10        0x0 /home/kosmick/chiffos/ChiffOS/libc/libc.a(lib_a-bsearch.o)
 .data          0x01698e10        0x0 /home/kosmick/chiffos/ChiffOS/libc/libc.a(lib_a-calloc.o)
 .data          0x01698e10        0x0 /home/kosmick/chiffos/ChiffOS/libc/libc.a(lib_a-callocr.o)
 .data          0x01698e10        0x0 /home/kosmick/chiffos/ChiffOS/libc/libc.a(lib_a-exit.o)
 .data          0x01698e10        0x0 /home/kosmick/chiffos/ChiffOS/libc/libc.a(lib_a-fclose.o)
 .data          0x01698e10        0x0 /home/kosmick/chiffos/ChiffOS/libc/libc.a(lib_a-fflush.o)
 .data          0x01698e10        0x0 /home/kosmick/chiffos/ChiffOS/libc/libc.a(lib_a-ffs.o)
 .data          0x01698e10        0x0 /home/kosmick/chiffos/ChiffOS/libc/libc.a(lib_a-findfp.o)
 .data          0x01698e10        0x0 /home/kosmick/chiffos/ChiffOS/libc/libc.a(lib_a-fiprintf.o)
 .data          0x01698e10        0x0 /home/kosmick/chiffos/ChiffOS/libc/libc.a(lib_a-fopen.o)
 .data          0x01698e10        0x0 /home/kosmick/chiffos/ChiffOS/libc/libc.a(lib_a-fprintf.o)
 .data          0x01698e10        0x0 /home/kosmick/chiffos/ChiffOS/libc/libc.a(lib_a-fputc.o)
 .data          0x01698e10        0x0 /home/kosmick/chiffos/ChiffOS/libc/libc.a(lib_a-fputs.o)
 .data          0x01698e10        0x0 /home/kosmick/chiffos/ChiffOS/libc/libc.a(lib_a-fread.o)
 .data          0x01698e10        0x0 /home/kosmick/chiffos/ChiffOS/libc/libc.a(lib_a-freer.o)
 .data          0x01698e10        0x0 /home/kosmick/chiffos/ChiffOS/libc/libc.a(lib_a-fseek.o)
 .data          0x01698e10        0x0 /home/kosmick/chiffos/ChiffOS/libc/libc.a(lib_a-fstatr.o)
 .data          0x01698e10        0x0 /home/kosmick/chiffos/ChiffOS/libc/libc.a(lib_a-fvwrite.o)
 .data          0x01698e10        0x0 /home/kosmick/chiffos/ChiffOS/libc/libc.a(lib_a-fwalk.o)
 .data          0x01698e10        0x0 /home/kosmick/chiffos/ChiffOS/libc/libc.a(lib_a-fwrite.o)
 .data          0x01698e10        0x0 /home/kosmick/chiffos/ChiffOS/libc/libc.a(lib_a-getenv.o)
 .data          0x01698e10        0x0 /home/kosmick/chiffos/ChiffOS/libc/libc.a(lib_a-getenv_r.o)
 *fill*         0x01698e10       0x10 
 .data          0x01698e20      0x444 /home/kosmick/chiffos/ChiffOS/libc/libc.a(lib_a-impure.o)
                0x01698e20                _impure_ptr
 .rodata        0x01699264        0x4 /home/kosmick/chiffos/ChiffOS/libc/libc.a(lib_a-impure.o)
                0x01699264                _global_impure_ptr
 .data          0x01699268        0x0 /home/kosmick/chiffos/ChiffOS/libc/libc.a(lib_a-makebuf.o)
 .data          0x01699268        0x0 /home/kosmick/chiffos/ChiffOS/libc/libc.a(lib_a-malloc.o)
 *fill*         0x01699268       0x18 
 .data          0x01699280      0x428 /home/kosmick/chiffos/ChiffOS/libc/libc.a(lib_a-mallocr.o)
                0x01699280                __malloc_sbrk_base
                0x01699284                __malloc_trim_threshold
                0x016992a0                __malloc_av_
 .data          0x016996a8        0x0 /home/kosmick/chiffos/ChiffOS/libc/libc.a(lib_a-memchr.o)
 .data          0x016996a8        0x0 /home/kosmick/chiffos/ChiffOS/libc/libc.a(lib_a-memcmp.o)
 .data          0x016996a8        0x0 /home/kosmick/chiffos/ChiffOS/libc/libc.a(lib_a-memcpy.o)
 .data          0x016996a8        0x0 /home/kosmick/chiffos/ChiffOS/libc/libc.a(lib_a-memmove.o)
 .data          0x016996a8        0x0 /home/kosmick/chiffos/ChiffOS/libc/libc.a(lib_a-memset.o)
 .data          0x016996a8        0x0 /home/kosmick/chiffos/ChiffOS/libc/libc.a(lib_a-mlock.o)
 .data          0x016996a8        0x0 /home/kosmick/chiffos/ChiffOS/libc/libc.a(lib_a-openr.o)
 .data          0x016996a8        0x0 /home/kosmick/chiffos/ChiffOS/libc/libc.a(lib_a-printf.o)
 .data          0x016996a8        0x0 /home/kosmick/chiffos/ChiffOS/libc/libc.a(lib_a-putc.o)
 .data          0x016996a8        0x0 /home/kosmick/chiffos/ChiffOS/libc/libc.a(lib_a-putchar.o)
 .data          0x016996a8        0x0 /home/kosmick/chiffos/ChiffOS/libc/libc.a(lib_a-puts.o)
 .data          0x016996a8        0x0 /home/kosmick/chiffos/ChiffOS/libc/libc.a(lib_a-qsort.o)
 .data          0x016996a8        0x0 /home/kosmick/chiffos/ChiffOS/libc/libc.a(lib_a-reallocr.o)
 .data          0x016996a8        0x0 /home/kosmick/chiffos/ChiffOS/libc/libc.a(lib_a-reent.o)
 .data          0x016996a8        0x0 /home/kosmick/chiffos/ChiffOS/libc/libc.a(lib_a-refill.o)
 .data          0x016996a8        0x0 /home/kosmick/chiffos/ChiffOS/libc/libc.a(lib_a-s_frexp.o)
 .data          0x016996a8        0x0 /home/kosmick/chiffos/ChiffOS/libc/libc.a(lib_a-s_ldexp.o)
 .data          0x016996a8        0x0 /home/kosmick/chiffos/ChiffOS/libc/libc.a(lib_a-s_scalbn.o)
 .data          0x016996a8        0x0 /home/kosmick/chiffos/ChiffOS/libc/libc.a(lib_a-sbrkr.o)
 .data          0x016996a8        0x0 /home/kosmick/chiffos/ChiffOS/libc/libc.a(lib_a-sprintf.o)
 .data          0x016996a8        0x0 /home/kosmick/chiffos/ChiffOS/libc/libc.a(lib_a-stdio.o)
 .data          0x016996a8        0x0 /home/kosmick/chiffos/ChiffOS/libc/libc.a(lib_a-strchr.o)
 .data          0x016996a8        0x0 /home/kosmick/chiffos/ChiffOS/libc/libc.a(lib_a-strcmp.o)
 .data          0x016996a8        0x0 /home/kosmick/chiffos/ChiffOS/libc/libc.a(lib_a-strcpy.o)
 .data          0x016996a8        0x0 /home/kosmick/chiffos/ChiffOS/libc/libc.a(lib_a-strlen.o)
 .data          0x016996a8        0x0 /home/kosmick/chiffos/ChiffOS/libc/libc.a(lib_a-strncat.o)
 .data          0x016996a8        0x0 /home/kosmick/chiffos/ChiffOS/libc/libc.a(lib_a-strncmp.o)
 .data          0x016996a8        0x0 /home/kosmick/chiffos/ChiffOS/libc/libc.a(lib_a-strncpy.o)
 .data          0x016996a8        0x0 /home/kosmick/chiffos/ChiffOS/libc/libc.a(lib_a-strstr.o)
 .data          0x016996a8       0x28 /home/kosmick/chiffos/ChiffOS/libc/libc.a(lib_a-strtod.o)
 *fill*         0x016996d0       0x10 
 .rodata        0x016996e0      0x108 /home/kosmick/chiffos/ChiffOS/libc/libc.a(lib_a-strtod.o)
 .data          0x016997e8        0x0 /home/kosmick/chiffos/ChiffOS/libc/libc.a(lib_a-strtol.o)
 .data          0x016997e8        0x0 /home/kosmick/chiffos/ChiffOS/libc/libc.a(lib_a-svfprintf.o)
 .rodata        0x016997e8      0x184 /home/kosmick/chiffos/ChiffOS/libc/libc.a(lib_a-svfprintf.o)
 .data          0x0169996c        0x0 /home/kosmick/chiffos/ChiffOS/libc/libc.a(lib_a-syscalls.o)
 .data          0x0169996c        0x0 /home/kosmick/chiffos/ChiffOS/libc/libc.a(lib_a-vfiprintf.o)
 .rodata        0x0169996c      0x184 /home/kosmick/chiffos/ChiffOS/libc/libc.a(lib_a-vfiprintf.o)
 .data          0x01699af0        0x0 /home/kosmick/chiffos/ChiffOS/libc/libc.a(lib_a-vfprintf.o)
 .rodata        0x01699af0      0x184 /home/kosmick/chiffos/ChiffOS/libc/libc.a(lib_a-vfprintf.o)
 .data          0x01699c74        0x0 /home/kosmick/chiffos/ChiffOS/libc/libc.a(lib_a-vsnprintf.o)
 .data          0x01699c74        0x0 /home/kosmick/chiffos/ChiffOS/libc/libc.a(lib_a-vsprintf.o)
 .data          0x01699c74        0x0 /home/kosmick/chiffos/ChiffOS/libc/libc.a(lib_a-wbuf.o)
 .data          0x01699c74        0x0 /home/kosmick/chiffos/ChiffOS/libc/libc.a(lib_a-writer.o)
 .data          0x01699c74        0x0 /home/kosmick/chiffos/ChiffOS/libc/libc.a(lib_a-wsetup.o)
 .data          0x01699c74        0x0 /home/kosmick/chiffos/ChiffOS/libc/libc.a(lib_a-__call_atexit.o)
 .data          0x01699c74        0x0 /home/kosmick/chiffos/ChiffOS/libc/libc.a(lib_a-abort.o)
 .data          0x01699c74        0x0 /home/kosmick/chiffos/ChiffOS/libc/libc.a(lib_a-closer.o)
 .data          0x01699c74        0x4 /home/kosmick/chiffos/ChiffOS/libc/libc.a(lib_a-ctype_.o)
                0x01699c74                __ctype_ptr__
 *fill*         0x01699c78        0x8 
 .rodata        0x01699c80      0x2a0 /home/kosmick/chiffos/ChiffOS/libc/libc.a(lib_a-ctype_.o)
                0x01699c80                _ctype_
 .data          0x01699f20        0x0 /home/kosmick/chiffos/ChiffOS/libc/libc.a(lib_a-dtoa.o)
 .data          0x01699f20        0x4 /home/kosmick/chiffos/ChiffOS/libc/libc.a(lib_a-environ.o)
                0x01699f20                environ
 .data          0x01699f24        0x0 /home/kosmick/chiffos/ChiffOS/libc/libc.a(lib_a-envlock.o)
 .data          0x01699f24        0x0 /home/kosmick/chiffos/ChiffOS/libc/libc.a(lib_a-errno.o)
 .data          0x01699f24        0x0 /home/kosmick/chiffos/ChiffOS/libc/libc.a(lib_a-flags.o)
 .data          0x01699f24        0x0 /home/kosmick/chiffos/ChiffOS/libc/libc.a(lib_a-fputwc.o)
 .data          0x01699f24        0x0 /home/kosmick/chiffos/ChiffOS/libc/libc.a(lib_a-gdtoa-gethex.o)
 .data          0x01699f24        0x0 /home/kosmick/chiffos/ChiffOS/libc/libc.a(lib_a-gdtoa-hexnan.o)
 .data          0x01699f24        0x0 /home/kosmick/chiffos/ChiffOS/libc/libc.a(lib_a-isattyr.o)
 *fill*         0x01699f24       0x1c 
 .data          0x01699f40       0x7c /home/kosmick/chiffos/ChiffOS/libc/libc.a(lib_a-locale.o)
                0x01699fb8                __mb_cur_max
 .data          0x01699fbc        0x0 /home/kosmick/chiffos/ChiffOS/libc/libc.a(lib_a-lseekr.o)
 .data          0x01699fbc        0x0 /home/kosmick/chiffos/ChiffOS/libc/libc.a(lib_a-mprec.o)
 *fill*         0x01699fbc        0x4 
 .rodata        0x01699fc0      0x168 /home/kosmick/chiffos/ChiffOS/libc/libc.a(lib_a-mprec.o)
                0x01699fe0                __mprec_tinytens
                0x0169a020                __mprec_bigtens
                0x0169a060                __mprec_tens
 .data          0x0169a128        0x0 /home/kosmick/chiffos/ChiffOS/libc/libc.a(lib_a-readr.o)
 .data          0x0169a128        0x0 /home/kosmick/chiffos/ChiffOS/libc/libc.a(lib_a-s_copysign.o)
 .data          0x0169a128        0x0 /home/kosmick/chiffos/ChiffOS/libc/libc.a(lib_a-s_finite.o)
 .data          0x0169a128        0x0 /home/kosmick/chiffos/ChiffOS/libc/libc.a(lib_a-s_fpclassify.o)
 .data          0x0169a128        0x0 /home/kosmick/chiffos/ChiffOS/libc/libc.a(lib_a-sf_nan.o)
 .data          0x0169a128        0x0 /home/kosmick/chiffos/ChiffOS/libc/libc.a(lib_a-signal.o)
 .data          0x0169a128        0x0 /home/kosmick/chiffos/ChiffOS/libc/libc.a(lib_a-signalr.o)
 .data          0x0169a128        0x0 /home/kosmick/chiffos/ChiffOS/libc/libc.a(lib_a-sscanf.o)
 .data          0x0169a128        0x0 /home/kosmick/chiffos/ChiffOS/libc/libc.a(lib_a-svfiprintf.o)
 .rodata        0x0169a128      0x184 /home/kosmick/chiffos/ChiffOS/libc/libc.a(lib_a-svfiprintf.o)
 .data          0x0169a2ac        0x0 /home/kosmick/chiffos/ChiffOS/libc/libc.a(lib_a-svfscanf.o)
 *fill*         0x0169a2ac       0x14 
 .rodata        0x0169a2c0      0x482 /home/kosmick/chiffos/ChiffOS/libc/libc.a(lib_a-svfscanf.o)
 *fill*         0x0169a742        0x2 
 .data          0x0169a744        0x0 /home/kosmick/chiffos/ChiffOS/libc/libc.a(lib_a-wcrtomb.o)
 .data          0x0169a744        0x4 /home/kosmick/chiffos/ChiffOS/libc/libc.a(lib_a-wctomb_r.o)
                0x0169a744                __wctomb
 .data          0x0169a748        0x0 /home/kosmick/chiffos/ChiffOS/libc/libc.a(lib_a-iswspace.o)
 .data          0x0169a748        0x0 /home/kosmick/chiffos/ChiffOS/libc/libc.a(lib_a-mbrtowc.o)
 .data          0x0169a748        0x4 /home/kosmick/chiffos/ChiffOS/libc/libc.a(lib_a-mbtowc_r.o)
                0x0169a748                __mbtowc
 .data          0x0169a74c        0x0 /home/kosmick/chiffos/ChiffOS/libc/libc.a(lib_a-sccl.o)
 .data          0x0169a74c        0x0 /home/kosmick/chiffos/ChiffOS/libc/libc.a(lib_a-strtoul.o)
 .data          0x0169a74c        0x0 /home/kosmick/chiffos/ChiffOS/libc/libc.a(lib_a-svfiscanf.o)
 *fill*         0x0169a74c       0x14 
 .rodata        0x0169a760      0x342 /home/kosmick/chiffos/ChiffOS/libc/libc.a(lib_a-svfiscanf.o)
 *fill*         0x0169aaa2        0x2 
 .data          0x0169aaa4        0x0 /home/kosmick/chiffos/ChiffOS/libc/libc.a(lib_a-ungetc.o)
 .data          0x0169aaa4        0x0 /home/kosmick/chiffos/ChiffOS/libc/libm.a(lib_a-s_atan.o)
 *fill*         0x0169aaa4       0x1c 
 .rodata        0x0169aac0       0x40 /home/kosmick/chiffos/ChiffOS/libc/libm.a(lib_a-s_atan.o)
 .data          0x0169ab00        0x0 /home/kosmick/chiffos/ChiffOS/libc/libm.a(lib_a-s_cos.o)
 .data          0x0169ab00        0x0 /home/kosmick/chiffos/ChiffOS/libc/libm.a(lib_a-s_fabs.o)
 .data          0x0169ab00        0x0 /home/kosmick/chiffos/ChiffOS/libc/libm.a(lib_a-s_floor.o)
 .data          0x0169ab00        0x0 /home/kosmick/chiffos/ChiffOS/libc/libm.a(lib_a-s_sin.o)
 .data          0x0169ab00        0x0 /home/kosmick/chiffos/ChiffOS/libc/libm.a(lib_a-w_asin.o)
 .data          0x0169ab00        0x0 /home/kosmick/chiffos/ChiffOS/libc/libm.a(lib_a-w_exp.o)
 .data          0x0169ab00        0x0 /home/kosmick/chiffos/ChiffOS/libc/libm.a(lib_a-w_log.o)
 .data          0x0169ab00        0x0 /home/kosmick/chiffos/ChiffOS/libc/libm.a(lib_a-w_pow.o)
 .data          0x0169ab00        0x0 /home/kosmick/chiffos/ChiffOS/libc/libm.a(lib_a-w_sqrt.o)
 .data          0x0169ab00        0x0 /home/kosmick/chiffos/ChiffOS/libc/libm.a(lib_a-e_asin.o)
 .data          0x0169ab00        0x0 /home/kosmick/chiffos/ChiffOS/libc/libm.a(lib_a-e_exp.o)
 .rodata        0x0169ab00       0x30 /home/kosmick/chiffos/ChiffOS/libc/libm.a(lib_a-e_exp.o)
 .data          0x0169ab30        0x0 /home/kosmick/chiffos/ChiffOS/libc/libm.a(lib_a-e_log.o)
 .data          0x0169ab30        0x0 /home/kosmick/chiffos/ChiffOS/libc/libm.a(lib_a-e_pow.o)
 .rodata        0x0169ab30       0x30 /home/kosmick/chiffos/ChiffOS/libc/libm.a(lib_a-e_pow.o)
 .data          0x0169ab60        0x0 /home/kosmick/chiffos/ChiffOS/libc/libm.a(lib_a-e_rem_pio2.o)
 .rodata        0x0169ab60      0x188 /home/kosmick/chiffos/ChiffOS/libc/libm.a(lib_a-e_rem_pio2.o)
 .data          0x0169ace8        0x0 /home/kosmick/chiffos/ChiffOS/libc/libm.a(lib_a-e_sqrt.o)
 .data          0x0169ace8        0x0 /home/kosmick/chiffos/ChiffOS/libc/libm.a(lib_a-k_cos.o)
 .data          0x0169ace8        0x0 /home/kosmick/chiffos/ChiffOS/libc/libm.a(lib_a-k_rem_pio2.o)
 *fill*         0x0169ace8       0x18 
 .rodata        0x0169ad00       0x50 /home/kosmick/chiffos/ChiffOS/libc/libm.a(lib_a-k_rem_pio2.o)
 .data          0x0169ad50        0x0 /home/kosmick/chiffos/ChiffOS/libc/libm.a(lib_a-k_sin.o)
 .data          0x0169ad50        0x4 /home/kosmick/chiffos/ChiffOS/libc/libm.a(lib_a-s_lib_ver.o)
                0x0169ad50                __fdlib_version
 .data          0x0169ad54        0x0 /home/kosmick/chiffos/ChiffOS/libc/libm.a(lib_a-s_matherr.o)
 .data          0x0169ad54        0x0 /home/kosmick/chiffos/ChiffOS/libc/libm.a(lib_a-s_nan.o)
 .data          0x0169ad54        0x0 /home/kosmick/chiffos/ChiffOS/libc/libm.a(lib_a-s_rint.o)
 *fill*         0x0169ad54        0x4 
 .rodata        0x0169ad58       0x10 /home/kosmick/chiffos/ChiffOS/libc/libm.a(lib_a-s_rint.o)
                0x0169ad68        0x8 QUAD 0x16bfc00 (ADDR (.bss) + SIZEOF (.bss))
                0x0169ad70                __bss_start = .

.igot.plt       0x0169ad70        0x0
 .igot.plt      0x00000000        0x0 /home/kosmick/chiffos/ChiffOS/user/start.o

.bss            0x0169ad80    0x24e80
 *(.bss)
 .bss           0x0169ad80       0x1c ./glxgear.o
 .bss           0x0169ad9c        0x0 /home/kosmick/chiffos/ChiffOS/libc/libOSMesa32.a(osmesa.o)
 .bss           0x0169ad9c        0x5 /home/kosmick/chiffos/ChiffOS/libc/libOSMesa32.a(context.o)
 *fill*         0x0169ada1        0x3 
 .bss           0x0169ada4        0x0 /home/kosmick/chiffos/ChiffOS/libc/libOSMesa32.a(cpuinfo.o)
 .bss           0x0169ada4        0x1 /home/kosmick/chiffos/ChiffOS/libc/libOSMesa32.a(debug.o)
 *fill*         0x0169ada5        0x3 
 .bss           0x0169ada8        0x0 /home/kosmick/chiffos/ChiffOS/libc/libOSMesa32.a(depth.o)
 *fill*         0x0169ada8       0x18 
 .bss           0x0169adc0      0x285 /home/kosmick/chiffos/ChiffOS/libc/libOSMesa32.a(dlist.o)
 *fill*         0x0169b045        0x3 
 .bss           0x0169b048       0x14 /home/kosmick/chiffos/ChiffOS/libc/libOSMesa32.a(enums.o)
 .bss           0x0169b05c        0x0 /home/kosmick/chiffos/ChiffOS/libc/libOSMesa32.a(eval.o)
 .bss           0x0169b05c        0x0 /home/kosmick/chiffos/ChiffOS/libc/libOSMesa32.a(extensions.o)
 *fill*         0x0169b05c        0x4 
 .bss           0x0169b060      0x38c /home/kosmick/chiffos/ChiffOS/libc/libOSMesa32.a(fbobject.o)
 .bss           0x0169b3ec        0x0 /home/kosmick/chiffos/ChiffOS/libc/libOSMesa32.a(feedback.o)
 .bss           0x0169b3ec        0x0 /home/kosmick/chiffos/ChiffOS/libc/libOSMesa32.a(fog.o)
 .bss           0x0169b3ec        0x0 /home/kosmick/chiffos/ChiffOS/libc/libOSMesa32.a(framebuffer.o)
 .bss           0x0169b3ec        0x0 /home/kosmick/chiffos/ChiffOS/libc/libOSMesa32.a(getstring.o)
 .bss           0x0169b3ec        0x0 /home/kosmick/chiffos/ChiffOS/libc/libOSMesa32.a(hash.o)
 .bss           0x0169b3ec        0x0 /home/kosmick/chiffos/ChiffOS/libc/libOSMesa32.a(hint.o)
 .bss           0x0169b3ec        0x0 /home/kosmick/chiffos/ChiffOS/libc/libOSMesa32.a(histogram.o)
 .bss           0x0169b3ec        0x0 /home/kosmick/chiffos/ChiffOS/libc/libOSMesa32.a(image.o)
 *fill*         0x0169b3ec       0x14 
 .bss           0x0169b400      0x200 /home/kosmick/chiffos/ChiffOS/libc/libOSMesa32.a(imports.o)
 .bss           0x0169b600        0x0 /home/kosmick/chiffos/ChiffOS/libc/libOSMesa32.a(light.o)
 .bss           0x0169b600        0x0 /home/kosmick/chiffos/ChiffOS/libc/libOSMesa32.a(lines.o)
 .bss           0x0169b600        0x0 /home/kosmick/chiffos/ChiffOS/libc/libOSMesa32.a(matrix.o)
 .bss           0x0169b600        0x0 /home/kosmick/chiffos/ChiffOS/libc/libOSMesa32.a(multisample.o)
 .bss           0x0169b600        0x0 /home/kosmick/chiffos/ChiffOS/libc/libOSMesa32.a(pixel.o)
 .bss           0x0169b600        0x0 /home/kosmick/chiffos/ChiffOS/libc/libOSMesa32.a(pixelstore.o)
 .bss           0x0169b600        0x0 /home/kosmick/chiffos/ChiffOS/libc/libOSMesa32.a(points.o)
 .bss           0x0169b600        0x0 /home/kosmick/chiffos/ChiffOS/libc/libOSMesa32.a(polygon.o)
 .bss           0x0169b600        0x0 /home/kosmick/chiffos/ChiffOS/libc/libOSMesa32.a(queryobj.o)
 .bss           0x0169b600        0x0 /home/kosmick/chiffos/ChiffOS/libc/libOSMesa32.a(rastpos.o)
 .bss           0x0169b600        0x0 /home/kosmick/chiffos/ChiffOS/libc/libOSMesa32.a(renderbuffer.o)
 .bss           0x0169b600        0x0 /home/kosmick/chiffos/ChiffOS/libc/libOSMesa32.a(scissor.o)
 .bss           0x0169b600        0x0 /home/kosmick/chiffos/ChiffOS/libc/libOSMesa32.a(shared.o)
 .bss           0x0169b600        0x0 /home/kosmick/chiffos/ChiffOS/libc/libOSMesa32.a(state.o)
 .bss           0x0169b600        0x0 /home/kosmick/chiffos/ChiffOS/libc/libOSMesa32.a(stencil.o)
 .bss           0x0169b600      0x420 /home/kosmick/chiffos/ChiffOS/libc/libOSMesa32.a(texcompress_s3tc.o)
                0x0169b600                fetch_ext_rgb_dxt1
                0x0169b604                fetch_ext_rgba_dxt1
                0x0169b608                fetch_ext_rgba_dxt3
                0x0169b60c                fetch_ext_rgba_dxt5
 .bss           0x0169ba20        0x0 /home/kosmick/chiffos/ChiffOS/libc/libOSMesa32.a(texcompress_fxt1.o)
 .bss           0x0169ba20        0x0 /home/kosmick/chiffos/ChiffOS/libc/libOSMesa32.a(texenvprogram.o)
 .bss           0x0169ba20        0x0 /home/kosmick/chiffos/ChiffOS/libc/libOSMesa32.a(teximage.o)
 .bss           0x0169ba20      0x100 /home/kosmick/chiffos/ChiffOS/libc/libOSMesa32.a(texobj.o)
 .bss           0x0169bb20        0x0 /home/kosmick/chiffos/ChiffOS/libc/libOSMesa32.a(texstate.o)
 .bss           0x0169bb20        0x0 /home/kosmick/chiffos/ChiffOS/libc/libOSMesa32.a(texstore.o)
 .bss           0x0169bb20        0x0 /home/kosmick/chiffos/ChiffOS/libc/libOSMesa32.a(varray.o)
 .bss           0x0169bb20        0x0 /home/kosmick/chiffos/ChiffOS/libc/libOSMesa32.a(viewport.o)
 .bss           0x0169bb20        0x0 /home/kosmick/chiffos/ChiffOS/libc/libOSMesa32.a(vtxfmt.o)
 .bss           0x0169bb20        0x0 /home/kosmick/chiffos/ChiffOS/libc/libOSMesa32.a(m_matrix.o)
 .bss           0x0169bb20        0x0 /home/kosmick/chiffos/ChiffOS/libc/libOSMesa32.a(vbo_context.o)
 .bss           0x0169bb20        0x0 /home/kosmick/chiffos/ChiffOS/libc/libOSMesa32.a(vbo_exec.o)
 .bss           0x0169bb20        0x0 /home/kosmick/chiffos/ChiffOS/libc/libOSMesa32.a(vbo_exec_api.o)
 .bss           0x0169bb20        0x0 /home/kosmick/chiffos/ChiffOS/libc/libOSMesa32.a(vbo_exec_array.o)
 .bss           0x0169bb20        0x0 /home/kosmick/chiffos/ChiffOS/libc/libOSMesa32.a(vbo_exec_draw.o)
 .bss           0x0169bb20        0x0 /home/kosmick/chiffos/ChiffOS/libc/libOSMesa32.a(vbo_exec_eval.o)
 .bss           0x0169bb20        0x0 /home/kosmick/chiffos/ChiffOS/libc/libOSMesa32.a(vbo_save.o)
 .bss           0x0169bb20        0x0 /home/kosmick/chiffos/ChiffOS/libc/libOSMesa32.a(vbo_save_api.o)
 .bss           0x0169bb20        0x0 /home/kosmick/chiffos/ChiffOS/libc/libOSMesa32.a(vbo_save_draw.o)
 .bss           0x0169bb20        0x0 /home/kosmick/chiffos/ChiffOS/libc/libOSMesa32.a(vbo_save_loopback.o)
 .bss           0x0169bb20        0x0 /home/kosmick/chiffos/ChiffOS/libc/libOSMesa32.a(t_context.o)
 .bss           0x0169bb20        0x0 /home/kosmick/chiffos/ChiffOS/libc/libOSMesa32.a(t_pipeline.o)
 .bss           0x0169bb20        0x0 /home/kosmick/chiffos/ChiffOS/libc/libOSMesa32.a(t_draw.o)
 .bss           0x0169bb20        0x0 /home/kosmick/chiffos/ChiffOS/libc/libOSMesa32.a(t_vb_program.o)
 .bss           0x0169bb20        0x0 /home/kosmick/chiffos/ChiffOS/libc/libOSMesa32.a(t_vb_render.o)
 .bss           0x0169bb20        0x0 /home/kosmick/chiffos/ChiffOS/libc/libOSMesa32.a(t_vb_texgen.o)
 .bss           0x0169bb20        0x0 /home/kosmick/chiffos/ChiffOS/libc/libOSMesa32.a(t_vb_texmat.o)
 .bss           0x0169bb20        0x0 /home/kosmick/chiffos/ChiffOS/libc/libOSMesa32.a(t_vb_vertex.o)
 .bss           0x0169bb20      0x404 /home/kosmick/chiffos/ChiffOS/libc/libOSMesa32.a(t_vb_fog.o)
 .bss           0x0169bf24       0x54 /home/kosmick/chiffos/ChiffOS/libc/libOSMesa32.a(t_vb_light.o)
 .bss           0x0169bf78        0x0 /home/kosmick/chiffos/ChiffOS/libc/libOSMesa32.a(t_vb_normals.o)
 .bss           0x0169bf78        0x0 /home/kosmick/chiffos/ChiffOS/libc/libOSMesa32.a(t_vb_points.o)
 .bss           0x0169bf78        0x0 /home/kosmick/chiffos/ChiffOS/libc/libOSMesa32.a(t_vp_build.o)
 .bss           0x0169bf78        0x0 /home/kosmick/chiffos/ChiffOS/libc/libOSMesa32.a(t_vertex.o)
 .bss           0x0169bf78        0x0 /home/kosmick/chiffos/ChiffOS/libc/libOSMesa32.a(t_vertex_generic.o)
 .bss           0x0169bf78        0x0 /home/kosmick/chiffos/ChiffOS/libc/libOSMesa32.a(arbprogram.o)
 *fill*         0x0169bf78        0x8 
 .bss           0x0169bf80       0xac /home/kosmick/chiffos/ChiffOS/libc/libOSMesa32.a(atifragshader.o)
 .bss           0x0169c02c        0x0 /home/kosmick/chiffos/ChiffOS/libc/libOSMesa32.a(nvprogram.o)
 .bss           0x0169c02c        0x0 /home/kosmick/chiffos/ChiffOS/libc/libOSMesa32.a(nvvertparse.o)
 .bss           0x0169c02c        0x0 /home/kosmick/chiffos/ChiffOS/libc/libOSMesa32.a(program.o)
 .bss           0x0169c02c        0x0 /home/kosmick/chiffos/ChiffOS/libc/libOSMesa32.a(prog_cache.o)
 .bss           0x0169c02c       0x10 /home/kosmick/chiffos/ChiffOS/libc/libOSMesa32.a(prog_execute.o)
 .bss           0x0169c03c        0x0 /home/kosmick/chiffos/ChiffOS/libc/libOSMesa32.a(prog_instruction.o)
 .bss           0x0169c03c        0x0 /home/kosmick/chiffos/ChiffOS/libc/libOSMesa32.a(prog_noise.o)
 .bss           0x0169c03c        0x0 /home/kosmick/chiffos/ChiffOS/libc/libOSMesa32.a(prog_parameter.o)
 .bss           0x0169c03c        0x0 /home/kosmick/chiffos/ChiffOS/libc/libOSMesa32.a(prog_statevars.o)
 .bss           0x0169c03c        0x0 /home/kosmick/chiffos/ChiffOS/libc/libOSMesa32.a(programopt.o)
 .bss           0x0169c03c        0x0 /home/kosmick/chiffos/ChiffOS/libc/libOSMesa32.a(shader_api.o)
 .bss           0x0169c03c        0x0 /home/kosmick/chiffos/ChiffOS/libc/libOSMesa32.a(s_context.o)
 .bss           0x0169c03c        0x0 /home/kosmick/chiffos/ChiffOS/libc/libOSMesa32.a(s_lines.o)
 .bss           0x0169c03c        0x0 /home/kosmick/chiffos/ChiffOS/libc/libOSMesa32.a(s_points.o)
 .bss           0x0169c03c        0x0 /home/kosmick/chiffos/ChiffOS/libc/libOSMesa32.a(s_span.o)
 .bss           0x0169c03c        0x0 /home/kosmick/chiffos/ChiffOS/libc/libOSMesa32.a(s_stencil.o)
 .bss           0x0169c03c        0x0 /home/kosmick/chiffos/ChiffOS/libc/libOSMesa32.a(s_texcombine.o)
 .bss           0x0169c03c        0x0 /home/kosmick/chiffos/ChiffOS/libc/libOSMesa32.a(s_texfilter.o)
 .bss           0x0169c03c        0x0 /home/kosmick/chiffos/ChiffOS/libc/libOSMesa32.a(s_triangle.o)
 .bss           0x0169c03c        0x0 /home/kosmick/chiffos/ChiffOS/libc/libOSMesa32.a(ss_context.o)
 *fill*         0x0169c03c        0x4 
 .bss           0x0169c040       0x80 /home/kosmick/chiffos/ChiffOS/libc/libOSMesa32.a(ss_triangle.o)
 .bss           0x0169c0c0        0x0 /home/kosmick/chiffos/ChiffOS/libc/libOSMesa32.a(driverfuncs.o)
 .bss           0x0169c0c0        0x0 /home/kosmick/chiffos/ChiffOS/libc/libOSMesa32.a(slang_compile.o)
 .bss           0x0169c0c0        0x0 /home/kosmick/chiffos/ChiffOS/libc/libOSMesa32.a(slang_compile_function.o)
 .bss           0x0169c0c0        0x0 /home/kosmick/chiffos/ChiffOS/libc/libOSMesa32.a(slang_compile_operation.o)
 .bss           0x0169c0c0        0x0 /home/kosmick/chiffos/ChiffOS/libc/libOSMesa32.a(slang_compile_struct.o)
 .bss           0x0169c0c0        0x0 /home/kosmick/chiffos/ChiffOS/libc/libOSMesa32.a(slang_compile_variable.o)
 .bss           0x0169c0c0        0x0 /home/kosmick/chiffos/ChiffOS/libc/libOSMesa32.a(slang_link.o)
 .bss           0x0169c0c0        0x0 /home/kosmick/chiffos/ChiffOS/libc/libOSMesa32.a(slang_log.o)
 .bss           0x0169c0c0        0x0 /home/kosmick/chiffos/ChiffOS/libc/libOSMesa32.a(slang_mem.o)
 .bss           0x0169c0c0        0x0 /home/kosmick/chiffos/ChiffOS/libc/libOSMesa32.a(slang_preprocess.o)
 .bss           0x0169c0c0        0x0 /home/kosmick/chiffos/ChiffOS/libc/libOSMesa32.a(slang_simplify.o)
 .bss           0x0169c0c0        0x0 /home/kosmick/chiffos/ChiffOS/libc/libOSMesa32.a(slang_storage.o)
 .bss           0x0169c0c0        0x0 /home/kosmick/chiffos/ChiffOS/libc/libOSMesa32.a(slang_typeinfo.o)
 .bss           0x0169c0c0        0x4 /home/kosmick/chiffos/ChiffOS/libc/libOSMesa32.a(slang_vartable.o)
 .bss           0x0169c0c4        0x0 /home/kosmick/chiffos/ChiffOS/libc/libOSMesa32.a(slang_utility.o)
 .bss           0x0169c0c4        0x0 /home/kosmick/chiffos/ChiffOS/libc/libOSMesa32.a(dispatch.o)
 .bss           0x0169c0c4        0xc /home/kosmick/chiffos/ChiffOS/libc/libOSMesa32.a(glapi.o)
                0x0169c0c4                _glapi_Context
 *fill*         0x0169c0d0       0x10 
 .bss           0x0169c0e0     0x12c4 /home/kosmick/chiffos/ChiffOS/libc/libOSMesa32.a(glapi_getproc.o)
 *fill*         0x0169d3a4       0x1c 
 .bss           0x0169d3c0       0x40 /home/kosmick/chiffos/ChiffOS/libc/libOSMesa32.a(api_arrayelt.o)
 .bss           0x0169d400        0x0 /home/kosmick/chiffos/ChiffOS/libc/libOSMesa32.a(api_exec.o)
 .bss           0x0169d400        0x0 /home/kosmick/chiffos/ChiffOS/libc/libOSMesa32.a(api_loopback.o)
 .bss           0x0169d400        0x0 /home/kosmick/chiffos/ChiffOS/libc/libOSMesa32.a(api_noop.o)
 .bss           0x0169d400        0x0 /home/kosmick/chiffos/ChiffOS/libc/libOSMesa32.a(api_validate.o)
 .bss           0x0169d400        0x0 /home/kosmick/chiffos/ChiffOS/libc/libOSMesa32.a(accum.o)
 .bss           0x0169d400        0x0 /home/kosmick/chiffos/ChiffOS/libc/libOSMesa32.a(attrib.o)
 .bss           0x0169d400        0x0 /home/kosmick/chiffos/ChiffOS/libc/libOSMesa32.a(arrayobj.o)
 .bss           0x0169d400        0x0 /home/kosmick/chiffos/ChiffOS/libc/libOSMesa32.a(blend.o)
 .bss           0x0169d400        0x0 /home/kosmick/chiffos/ChiffOS/libc/libOSMesa32.a(bufferobj.o)
 .bss           0x0169d400        0x0 /home/kosmick/chiffos/ChiffOS/libc/libOSMesa32.a(buffers.o)
 .bss           0x0169d400        0x0 /home/kosmick/chiffos/ChiffOS/libc/libOSMesa32.a(clear.o)
 .bss           0x0169d400        0x0 /home/kosmick/chiffos/ChiffOS/libc/libOSMesa32.a(clip.o)
 .bss           0x0169d400        0x0 /home/kosmick/chiffos/ChiffOS/libc/libOSMesa32.a(colortab.o)
 .bss           0x0169d400        0x0 /home/kosmick/chiffos/ChiffOS/libc/libOSMesa32.a(convolve.o)
 .bss           0x0169d400        0x0 /home/kosmick/chiffos/ChiffOS/libc/libOSMesa32.a(depthstencil.o)
 .bss           0x0169d400        0x0 /home/kosmick/chiffos/ChiffOS/libc/libOSMesa32.a(dlopen.o)
 .bss           0x0169d400        0x0 /home/kosmick/chiffos/ChiffOS/libc/libOSMesa32.a(drawpix.o)
 .bss           0x0169d400        0x0 /home/kosmick/chiffos/ChiffOS/libc/libOSMesa32.a(enable.o)
 .bss           0x0169d400        0x0 /home/kosmick/chiffos/ChiffOS/libc/libOSMesa32.a(execmem.o)
 .bss           0x0169d400        0x4 /home/kosmick/chiffos/ChiffOS/libc/libOSMesa32.a(ffvertex_prog.o)
 .bss           0x0169d404        0x0 /home/kosmick/chiffos/ChiffOS/libc/libOSMesa32.a(get.o)
 .bss           0x0169d404        0x0 /home/kosmick/chiffos/ChiffOS/libc/libOSMesa32.a(mipmap.o)
 .bss           0x0169d404        0x0 /home/kosmick/chiffos/ChiffOS/libc/libOSMesa32.a(rbadaptors.o)
 .bss           0x0169d404        0x0 /home/kosmick/chiffos/ChiffOS/libc/libOSMesa32.a(readpix.o)
 .bss           0x0169d404        0x0 /home/kosmick/chiffos/ChiffOS/libc/libOSMesa32.a(shaders.o)
 .bss           0x0169d404        0x0 /home/kosmick/chiffos/ChiffOS/libc/libOSMesa32.a(texcompress.o)
 .bss           0x0169d404        0x0 /home/kosmick/chiffos/ChiffOS/libc/libOSMesa32.a(texenv.o)
 *fill*         0x0169d404       0x1c 
 .bss           0x0169d420      0x420 /home/kosmick/chiffos/ChiffOS/libc/libOSMesa32.a(texformat.o)
 .bss           0x0169d840        0x0 /home/kosmick/chiffos/ChiffOS/libc/libOSMesa32.a(texgen.o)
 .bss           0x0169d840        0x0 /home/kosmick/chiffos/ChiffOS/libc/libOSMesa32.a(texgetimage.o)
 .bss           0x0169d840        0x0 /home/kosmick/chiffos/ChiffOS/libc/libOSMesa32.a(texparam.o)
 .bss           0x0169d840        0x0 /home/kosmick/chiffos/ChiffOS/libc/libOSMesa32.a(texrender.o)
 .bss           0x0169d840       0x78 /home/kosmick/chiffos/ChiffOS/libc/libOSMesa32.a(m_eval.o)
 *fill*         0x0169d8b8        0x8 
 .bss           0x0169d8c0      0x47c /home/kosmick/chiffos/ChiffOS/libc/libOSMesa32.a(m_translate.o)
 .bss           0x0169dd3c        0x0 /home/kosmick/chiffos/ChiffOS/libc/libOSMesa32.a(m_vector.o)
 .bss           0x0169dd3c       0x70 /home/kosmick/chiffos/ChiffOS/libc/libOSMesa32.a(m_xform.o)
 .bss           0x0169ddac        0x0 /home/kosmick/chiffos/ChiffOS/libc/libOSMesa32.a(vbo_rebase.o)
 .bss           0x0169ddac        0x0 /home/kosmick/chiffos/ChiffOS/libc/libOSMesa32.a(vbo_split.o)
 .bss           0x0169ddac        0x0 /home/kosmick/chiffos/ChiffOS/libc/libOSMesa32.a(vbo_split_copy.o)
 .bss           0x0169ddac        0x0 /home/kosmick/chiffos/ChiffOS/libc/libOSMesa32.a(vbo_split_inplace.o)
 .bss           0x0169ddac        0x0 /home/kosmick/chiffos/ChiffOS/libc/libOSMesa32.a(t_rasterpos.o)
 .bss           0x0169ddac        0x4 /home/kosmick/chiffos/ChiffOS/libc/libOSMesa32.a(arbprogparse.o)
 .bss           0x0169ddb0       0x10 /home/kosmick/chiffos/ChiffOS/libc/libOSMesa32.a(grammar_mesa.o)
 .bss           0x0169ddc0        0x0 /home/kosmick/chiffos/ChiffOS/libc/libOSMesa32.a(nvfragparse.o)
 .bss           0x0169ddc0        0x1 /home/kosmick/chiffos/ChiffOS/libc/libOSMesa32.a(prog_optimize.o)
 *fill*         0x0169ddc1       0x1f 
 .bss           0x0169dde0       0x82 /home/kosmick/chiffos/ChiffOS/libc/libOSMesa32.a(prog_print.o)
 *fill*         0x0169de62        0x2 
 .bss           0x0169de64        0x0 /home/kosmick/chiffos/ChiffOS/libc/libOSMesa32.a(prog_uniform.o)
 *fill*         0x0169de64       0x1c 
 .bss           0x0169de80       0xa0 /home/kosmick/chiffos/ChiffOS/libc/libOSMesa32.a(s_aaline.o)
 .bss           0x0169df20        0x0 /home/kosmick/chiffos/ChiffOS/libc/libOSMesa32.a(s_aatriangle.o)
 .bss           0x0169df20    0x20020 /home/kosmick/chiffos/ChiffOS/libc/libOSMesa32.a(s_accum.o)
 .bss           0x016bdf40        0x0 /home/kosmick/chiffos/ChiffOS/libc/libOSMesa32.a(s_alpha.o)
 .bss           0x016bdf40        0x0 /home/kosmick/chiffos/ChiffOS/libc/libOSMesa32.a(s_atifragshader.o)
 .bss           0x016bdf40        0x0 /home/kosmick/chiffos/ChiffOS/libc/libOSMesa32.a(s_bitmap.o)
 .bss           0x016bdf40        0x0 /home/kosmick/chiffos/ChiffOS/libc/libOSMesa32.a(s_blend.o)
 .bss           0x016bdf40        0x0 /home/kosmick/chiffos/ChiffOS/libc/libOSMesa32.a(s_blit.o)
 .bss           0x016bdf40        0x0 /home/kosmick/chiffos/ChiffOS/libc/libOSMesa32.a(s_clear.o)
 .bss           0x016bdf40        0x0 /home/kosmick/chiffos/ChiffOS/libc/libOSMesa32.a(s_copypix.o)
 .bss           0x016bdf40        0x0 /home/kosmick/chiffos/ChiffOS/libc/libOSMesa32.a(s_depth.o)
 .bss           0x016bdf40        0x0 /home/kosmick/chiffos/ChiffOS/libc/libOSMesa32.a(s_drawpix.o)
 .bss           0x016bdf40        0x0 /home/kosmick/chiffos/ChiffOS/libc/libOSMesa32.a(s_feedback.o)
 .bss           0x016bdf40        0x0 /home/kosmick/chiffos/ChiffOS/libc/libOSMesa32.a(s_fog.o)
 .bss           0x016bdf40        0x0 /home/kosmick/chiffos/ChiffOS/libc/libOSMesa32.a(s_fragprog.o)
 .bss           0x016bdf40        0x0 /home/kosmick/chiffos/ChiffOS/libc/libOSMesa32.a(s_imaging.o)
 .bss           0x016bdf40        0x0 /home/kosmick/chiffos/ChiffOS/libc/libOSMesa32.a(s_logic.o)
 .bss           0x016bdf40        0x0 /home/kosmick/chiffos/ChiffOS/libc/libOSMesa32.a(s_masking.o)
 .bss           0x016bdf40        0x0 /home/kosmick/chiffos/ChiffOS/libc/libOSMesa32.a(s_readpix.o)
 .bss           0x016bdf40        0x0 /home/kosmick/chiffos/ChiffOS/libc/libOSMesa32.a(s_texstore.o)
 .bss           0x016bdf40        0x0 /home/kosmick/chiffos/ChiffOS/libc/libOSMesa32.a(s_zoom.o)
 .bss           0x016bdf40        0x0 /home/kosmick/chiffos/ChiffOS/libc/libOSMesa32.a(slang_codegen.o)
 .bss           0x016bdf40        0x0 /home/kosmick/chiffos/ChiffOS/libc/libOSMesa32.a(slang_emit.o)
 .bss           0x016bdf40       0x64 /home/kosmick/chiffos/ChiffOS/libc/libOSMesa32.a(slang_ir.o)
 .bss           0x016bdfa4        0x0 /home/kosmick/chiffos/ChiffOS/libc/libOSMesa32.a(slang_label.o)
 *fill*         0x016bdfa4       0x1c 
 .bss           0x016bdfc0      0x3e8 /home/kosmick/chiffos/ChiffOS/libc/libOSMesa32.a(slang_print.o)
 .bss           0x016be3a8        0x0 /home/kosmick/chiffos/ChiffOS/libc/libOSMesa32.a(slang_builtin.o)
 .bss           0x016be3a8        0x0 /home/kosmick/chiffos/ChiffOS/libc/libc.a(lib_a-assert.o)
 .bss           0x016be3a8        0x0 /home/kosmick/chiffos/ChiffOS/libc/libc.a(lib_a-atoi.o)
 .bss           0x016be3a8        0x0 /home/kosmick/chiffos/ChiffOS/libc/libc.a(lib_a-bsearch.o)
 .bss           0x016be3a8        0x0 /home/kosmick/chiffos/ChiffOS/libc/libc.a(lib_a-calloc.o)
 .bss           0x016be3a8        0x0 /home/kosmick/chiffos/ChiffOS/libc/libc.a(lib_a-callocr.o)
 .bss           0x016be3a8        0x0 /home/kosmick/chiffos/ChiffOS/libc/libc.a(lib_a-exit.o)
 .bss           0x016be3a8        0x0 /home/kosmick/chiffos/ChiffOS/libc/libc.a(lib_a-fclose.o)
 .bss           0x016be3a8        0x0 /home/kosmick/chiffos/ChiffOS/libc/libc.a(lib_a-fflush.o)
 .bss           0x016be3a8        0x0 /home/kosmick/chiffos/ChiffOS/libc/libc.a(lib_a-ffs.o)
 .bss           0x016be3a8        0x0 /home/kosmick/chiffos/ChiffOS/libc/libc.a(lib_a-findfp.o)
 .bss           0x016be3a8        0x0 /home/kosmick/chiffos/ChiffOS/libc/libc.a(lib_a-fiprintf.o)
 .bss           0x016be3a8        0x0 /home/kosmick/chiffos/ChiffOS/libc/libc.a(lib_a-fopen.o)
 .bss           0x016be3a8        0x0 /home/kosmick/chiffos/ChiffOS/libc/libc.a(lib_a-fprintf.o)
 .bss           0x016be3a8        0x0 /home/kosmick/chiffos/ChiffOS/libc/libc.a(lib_a-fputc.o)
 .bss           0x016be3a8        0x0 /home/kosmick/chiffos/ChiffOS/libc/libc.a(lib_a-fputs.o)
 .bss           0x016be3a8        0x0 /home/kosmick/chiffos/ChiffOS/libc/libc.a(lib_a-fread.o)
 .bss           0x016be3a8        0x0 /home/kosmick/chiffos/ChiffOS/libc/libc.a(lib_a-freer.o)
 .bss           0x016be3a8        0x0 /home/kosmick/chiffos/ChiffOS/libc/libc.a(lib_a-fseek.o)
 .bss           0x016be3a8        0x0 /home/kosmick/chiffos/ChiffOS/libc/libc.a(lib_a-fstatr.o)
 .bss           0x016be3a8        0x0 /home/kosmick/chiffos/ChiffOS/libc/libc.a(lib_a-fvwrite.o)
 .bss           0x016be3a8        0x0 /home/kosmick/chiffos/ChiffOS/libc/libc.a(lib_a-fwalk.o)
 .bss           0x016be3a8        0x0 /home/kosmick/chiffos/ChiffOS/libc/libc.a(lib_a-fwrite.o)
 .bss           0x016be3a8        0x0 /home/kosmick/chiffos/ChiffOS/libc/libc.a(lib_a-getenv.o)
 .bss           0x016be3a8        0x0 /home/kosmick/chiffos/ChiffOS/libc/libc.a(lib_a-getenv_r.o)
 .bss           0x016be3a8        0x0 /home/kosmick/chiffos/ChiffOS/libc/libc.a(lib_a-impure.o)
 .bss           0x016be3a8        0x0 /home/kosmick/chiffos/ChiffOS/libc/libc.a(lib_a-makebuf.o)
 .bss           0x016be3a8        0x0 /home/kosmick/chiffos/ChiffOS/libc/libc.a(lib_a-malloc.o)
 *fill*         0x016be3a8       0x18 
 .bss           0x016be3c0       0x34 /home/kosmick/chiffos/ChiffOS/libc/libc.a(lib_a-mallocr.o)
                0x016be3c0                __malloc_current_mallinfo
                0x016be3e8                __malloc_max_total_mem
                0x016be3ec                __malloc_max_sbrked_mem
                0x016be3f0                __malloc_top_pad
 .bss           0x016be3f4        0x0 /home/kosmick/chiffos/ChiffOS/libc/libc.a(lib_a-memchr.o)
 .bss           0x016be3f4        0x0 /home/kosmick/chiffos/ChiffOS/libc/libc.a(lib_a-memcmp.o)
 .bss           0x016be3f4        0x0 /home/kosmick/chiffos/ChiffOS/libc/libc.a(lib_a-memcpy.o)
 .bss           0x016be3f4        0x0 /home/kosmick/chiffos/ChiffOS/libc/libc.a(lib_a-memmove.o)
 .bss           0x016be3f4        0x0 /home/kosmick/chiffos/ChiffOS/libc/libc.a(lib_a-memset.o)
 .bss           0x016be3f4        0x0 /home/kosmick/chiffos/ChiffOS/libc/libc.a(lib_a-mlock.o)
 .bss           0x016be3f4        0x0 /home/kosmick/chiffos/ChiffOS/libc/libc.a(lib_a-openr.o)
 .bss           0x016be3f4        0x0 /home/kosmick/chiffos/ChiffOS/libc/libc.a(lib_a-printf.o)
 .bss           0x016be3f4        0x0 /home/kosmick/chiffos/ChiffOS/libc/libc.a(lib_a-putc.o)
 .bss           0x016be3f4        0x0 /home/kosmick/chiffos/ChiffOS/libc/libc.a(lib_a-putchar.o)
 .bss           0x016be3f4        0x0 /home/kosmick/chiffos/ChiffOS/libc/libc.a(lib_a-puts.o)
 .bss           0x016be3f4        0x0 /home/kosmick/chiffos/ChiffOS/libc/libc.a(lib_a-qsort.o)
 .bss           0x016be3f4        0x0 /home/kosmick/chiffos/ChiffOS/libc/libc.a(lib_a-reallocr.o)
 .bss           0x016be3f4        0x0 /home/kosmick/chiffos/ChiffOS/libc/libc.a(lib_a-reent.o)
 .bss           0x016be3f4        0x0 /home/kosmick/chiffos/ChiffOS/libc/libc.a(lib_a-refill.o)
 .bss           0x016be3f4        0x0 /home/kosmick/chiffos/ChiffOS/libc/libc.a(lib_a-s_frexp.o)
 .bss           0x016be3f4        0x0 /home/kosmick/chiffos/ChiffOS/libc/libc.a(lib_a-s_ldexp.o)
 .bss           0x016be3f4        0x0 /home/kosmick/chiffos/ChiffOS/libc/libc.a(lib_a-s_scalbn.o)
 .bss           0x016be3f4        0x0 /home/kosmick/chiffos/ChiffOS/libc/libc.a(lib_a-sbrkr.o)
 .bss           0x016be3f4        0x0 /home/kosmick/chiffos/ChiffOS/libc/libc.a(lib_a-sprintf.o)
 .bss           0x016be3f4        0x0 /home/kosmick/chiffos/ChiffOS/libc/libc.a(lib_a-stdio.o)
 .bss           0x016be3f4        0x0 /home/kosmick/chiffos/ChiffOS/libc/libc.a(lib_a-strchr.o)
 .bss           0x016be3f4        0x0 /home/kosmick/chiffos/ChiffOS/libc/libc.a(lib_a-strcmp.o)
 .bss           0x016be3f4        0x0 /home/kosmick/chiffos/ChiffOS/libc/libc.a(lib_a-strcpy.o)
 .bss           0x016be3f4        0x0 /home/kosmick/chiffos/ChiffOS/libc/libc.a(lib_a-strlen.o)
 .bss           0x016be3f4        0x0 /home/kosmick/chiffos/ChiffOS/libc/libc.a(lib_a-strncat.o)
 .bss           0x016be3f4        0x0 /home/kosmick/chiffos/ChiffOS/libc/libc.a(lib_a-strncmp.o)
 .bss           0x016be3f4        0x0 /home/kosmick/chiffos/ChiffOS/libc/libc.a(lib_a-strncpy.o)
 .bss           0x016be3f4        0x0 /home/kosmick/chiffos/ChiffOS/libc/libc.a(lib_a-strstr.o)
 .bss           0x016be3f4        0x0 /home/kosmick/chiffos/ChiffOS/libc/libc.a(lib_a-strtod.o)
 .bss           0x016be3f4        0x0 /home/kosmick/chiffos/ChiffOS/libc/libc.a(lib_a-strtol.o)
 .bss           0x016be3f4        0x0 /home/kosmick/chiffos/ChiffOS/libc/libc.a(lib_a-svfprintf.o)
 .bss           0x016be3f4        0x0 /home/kosmick/chiffos/ChiffOS/libc/libc.a(lib_a-syscalls.o)
 .bss           0x016be3f4        0x0 /home/kosmick/chiffos/ChiffOS/libc/libc.a(lib_a-vfiprintf.o)
 .bss           0x016be3f4        0x0 /home/kosmick/chiffos/ChiffOS/libc/libc.a(lib_a-vfprintf.o)
 .bss           0x016be3f4        0x0 /home/kosmick/chiffos/ChiffOS/libc/libc.a(lib_a-vsnprintf.o)
 .bss           0x016be3f4        0x0 /home/kosmick/chiffos/ChiffOS/libc/libc.a(lib_a-vsprintf.o)
 .bss           0x016be3f4        0x0 /home/kosmick/chiffos/ChiffOS/libc/libc.a(lib_a-wbuf.o)
 .bss           0x016be3f4        0x0 /home/kosmick/chiffos/ChiffOS/libc/libc.a(lib_a-writer.o)
 .bss           0x016be3f4        0x0 /home/kosmick/chiffos/ChiffOS/libc/libc.a(lib_a-wsetup.o)
 .bss           0x016be3f4        0x0 /home/kosmick/chiffos/ChiffOS/libc/libc.a(lib_a-__call_atexit.o)
 .bss           0x016be3f4        0x0 /home/kosmick/chiffos/ChiffOS/libc/libc.a(lib_a-abort.o)
 .bss           0x016be3f4        0x0 /home/kosmick/chiffos/ChiffOS/libc/libc.a(lib_a-closer.o)
 .bss           0x016be3f4        0x0 /home/kosmick/chiffos/ChiffOS/libc/libc.a(lib_a-ctype_.o)
 .bss           0x016be3f4        0x0 /home/kosmick/chiffos/ChiffOS/libc/libc.a(lib_a-dtoa.o)
 .bss           0x016be3f4        0x4 /home/kosmick/chiffos/ChiffOS/libc/libc.a(lib_a-environ.o)
 .bss           0x016be3f8        0x0 /home/kosmick/chiffos/ChiffOS/libc/libc.a(lib_a-envlock.o)
 .bss           0x016be3f8        0x0 /home/kosmick/chiffos/ChiffOS/libc/libc.a(lib_a-errno.o)
 .bss           0x016be3f8        0x0 /home/kosmick/chiffos/ChiffOS/libc/libc.a(lib_a-flags.o)
 .bss           0x016be3f8        0x0 /home/kosmick/chiffos/ChiffOS/libc/libc.a(lib_a-fputwc.o)
 .bss           0x016be3f8        0x0 /home/kosmick/chiffos/ChiffOS/libc/libc.a(lib_a-gdtoa-gethex.o)
 .bss           0x016be3f8        0x0 /home/kosmick/chiffos/ChiffOS/libc/libc.a(lib_a-gdtoa-hexnan.o)
 .bss           0x016be3f8        0x0 /home/kosmick/chiffos/ChiffOS/libc/libc.a(lib_a-isattyr.o)
 .bss           0x016be3f8        0xc /home/kosmick/chiffos/ChiffOS/libc/libc.a(lib_a-locale.o)
                0x016be3f8                _PathLocale
                0x016be3fc                __mlocale_changed
                0x016be400                __nlocale_changed
 .bss           0x016be404        0x0 /home/kosmick/chiffos/ChiffOS/libc/libc.a(lib_a-lseekr.o)
 .bss           0x016be404        0x0 /home/kosmick/chiffos/ChiffOS/libc/libc.a(lib_a-mprec.o)
 .bss           0x016be404        0x0 /home/kosmick/chiffos/ChiffOS/libc/libc.a(lib_a-readr.o)
 .bss           0x016be404        0x0 /home/kosmick/chiffos/ChiffOS/libc/libc.a(lib_a-s_copysign.o)
 .bss           0x016be404        0x0 /home/kosmick/chiffos/ChiffOS/libc/libc.a(lib_a-s_finite.o)
 .bss           0x016be404        0x0 /home/kosmick/chiffos/ChiffOS/libc/libc.a(lib_a-s_fpclassify.o)
 .bss           0x016be404        0x0 /home/kosmick/chiffos/ChiffOS/libc/libc.a(lib_a-sf_nan.o)
 .bss           0x016be404        0x0 /home/kosmick/chiffos/ChiffOS/libc/libc.a(lib_a-signal.o)
 .bss           0x016be404        0x0 /home/kosmick/chiffos/ChiffOS/libc/libc.a(lib_a-signalr.o)
 .bss           0x016be404        0x0 /home/kosmick/chiffos/ChiffOS/libc/libc.a(lib_a-sscanf.o)
 .bss           0x016be404        0x0 /home/kosmick/chiffos/ChiffOS/libc/libc.a(lib_a-svfiprintf.o)
 .bss           0x016be404        0x0 /home/kosmick/chiffos/ChiffOS/libc/libc.a(lib_a-svfscanf.o)
 .bss           0x016be404        0x0 /home/kosmick/chiffos/ChiffOS/libc/libc.a(lib_a-wcrtomb.o)
 .bss           0x016be404        0x0 /home/kosmick/chiffos/ChiffOS/libc/libc.a(lib_a-wctomb_r.o)
 .bss           0x016be404        0x0 /home/kosmick/chiffos/ChiffOS/libc/libc.a(lib_a-iswspace.o)
 .bss           0x016be404        0x0 /home/kosmick/chiffos/ChiffOS/libc/libc.a(lib_a-mbrtowc.o)
 .bss           0x016be404        0x0 /home/kosmick/chiffos/ChiffOS/libc/libc.a(lib_a-mbtowc_r.o)
 .bss           0x016be404        0x0 /home/kosmick/chiffos/ChiffOS/libc/libc.a(lib_a-sccl.o)
 .bss           0x016be404        0x0 /home/kosmick/chiffos/ChiffOS/libc/libc.a(lib_a-strtoul.o)
 .bss           0x016be404        0x0 /home/kosmick/chiffos/ChiffOS/libc/libc.a(lib_a-svfiscanf.o)
 .bss           0x016be404        0x0 /home/kosmick/chiffos/ChiffOS/libc/libc.a(lib_a-ungetc.o)
 .bss           0x016be404        0x0 /home/kosmick/chiffos/ChiffOS/libc/libm.a(lib_a-s_atan.o)
 .bss           0x016be404        0x0 /home/kosmick/chiffos/ChiffOS/libc/libm.a(lib_a-s_cos.o)
 .bss           0x016be404        0x0 /home/kosmick/chiffos/ChiffOS/libc/libm.a(lib_a-s_fabs.o)
 .bss           0x016be404        0x0 /home/kosmick/chiffos/ChiffOS/libc/libm.a(lib_a-s_floor.o)
 .bss           0x016be404        0x0 /home/kosmick/chiffos/ChiffOS/libc/libm.a(lib_a-s_sin.o)
 .bss           0x016be404        0x0 /home/kosmick/chiffos/ChiffOS/libc/libm.a(lib_a-w_asin.o)
 .bss           0x016be404        0x0 /home/kosmick/chiffos/ChiffOS/libc/libm.a(lib_a-w_exp.o)
 .bss           0x016be404        0x0 /home/kosmick/chiffos/ChiffOS/libc/libm.a(lib_a-w_log.o)
 .bss           0x016be404        0x0 /home/kosmick/chiffos/ChiffOS/libc/libm.a(lib_a-w_pow.o)
 .bss           0x016be404        0x0 /home/kosmick/chiffos/ChiffOS/libc/libm.a(lib_a-w_sqrt.o)
 .bss           0x016be404        0x0 /home/kosmick/chiffos/ChiffOS/libc/libm.a(lib_a-e_asin.o)
 .bss           0x016be404        0x0 /home/kosmick/chiffos/ChiffOS/libc/libm.a(lib_a-e_exp.o)
 .bss           0x016be404        0x0 /home/kosmick/chiffos/ChiffOS/libc/libm.a(lib_a-e_log.o)
 .bss           0x016be404        0x0 /home/kosmick/chiffos/ChiffOS/libc/libm.a(lib_a-e_pow.o)
 .bss           0x016be404        0x0 /home/kosmick/chiffos/ChiffOS/libc/libm.a(lib_a-e_rem_pio2.o)
 .bss           0x016be404        0x0 /home/kosmick/chiffos/ChiffOS/libc/libm.a(lib_a-e_sqrt.o)
 .bss           0x016be404        0x0 /home/kosmick/chiffos/ChiffOS/libc/libm.a(lib_a-k_cos.o)
 .bss           0x016be404        0x0 /home/kosmick/chiffos/ChiffOS/libc/libm.a(lib_a-k_rem_pio2.o)
 .bss           0x016be404        0x0 /home/kosmick/chiffos/ChiffOS/libc/libm.a(lib_a-k_sin.o)
 .bss           0x016be404        0x0 /home/kosmick/chiffos/ChiffOS/libc/libm.a(lib_a-s_lib_ver.o)
 .bss           0x016be404        0x0 /home/kosmick/chiffos/ChiffOS/libc/libm.a(lib_a-s_matherr.o)
 .bss           0x016be404        0x0 /home/kosmick/chiffos/ChiffOS/libc/libm.a(lib_a-s_nan.o)
 .bss           0x016be404        0x0 /home/kosmick/chiffos/ChiffOS/libc/libm.a(lib_a-s_rint.o)
 COMMON         0x016be404        0x8 ./glxgear.o
                0x016be404                DOUBLEBUFFER_vbe
                0x016be408                SCREEN
 *fill*         0x016be40c       0x14 
 COMMON         0x016be420      0x400 /home/kosmick/chiffos/ChiffOS/libc/libOSMesa32.a(context.o)
                0x016be420                _mesa_ubyte_to_float_color_tab
 COMMON         0x016be820     0x11d8 /home/kosmick/chiffos/ChiffOS/libc/libOSMesa32.a(program.o)
                0x016be820                _mesa_DummyProgram
 *fill*         0x016bf9f8        0x8 
 COMMON         0x016bfa00       0xe4 /home/kosmick/chiffos/ChiffOS/libc/libOSMesa32.a(m_xform.o)
                0x016bfa00                _mesa_clip_np_tab
                0x016bfa14                _mesa_dotprod_tab
                0x016bfa40                _mesa_copy_tab
                0x016bfa80                _mesa_normal_tab
                0x016bfabc                _mesa_transform_tab
                0x016bfad0                _mesa_clip_tab
 COMMON         0x016bfae4        0x4 /home/kosmick/chiffos/ChiffOS/libc/libc.a(lib_a-reent.o)
                0x016bfae4                errno
 *fill*         0x016bfae8       0x18 
 COMMON         0x016bfb00      0x100 /home/kosmick/chiffos/ChiffOS/libc/libc.a(lib_a-gdtoa-gethex.o)
                0x016bfb00                __hexdig
                0x016bfc00                end = .
                0x016bfc00                _end = .
                0x016bfc00                __end = .
LOAD ./glxgear.o
LOAD /home/kosmick/chiffos/ChiffOS/libc/libOSMesa32.a
LOAD /home/kosmick/chiffos/ChiffOS/libc/libc.a
LOAD /home/kosmick/chiffos/ChiffOS/libc/libm.a
OUTPUT(glxgears elf32-i386)

.debug_info     0x00000000    0x3e5d2
 .debug_info    0x00000000      0x551 ./glxgear.o
 .debug_info    0x00000551      0x985 /home/kosmick/chiffos/ChiffOS/libc/libc.a(lib_a-assert.o)
 .debug_info    0x00000ed6      0x93a /home/kosmick/chiffos/ChiffOS/libc/libc.a(lib_a-atoi.o)
 .debug_info    0x00001810      0x15d /home/kosmick/chiffos/ChiffOS/libc/libc.a(lib_a-bsearch.o)
 .debug_info    0x0000196d      0x8cc /home/kosmick/chiffos/ChiffOS/libc/libc.a(lib_a-calloc.o)
 .debug_info    0x00002239      0x9d1 /home/kosmick/chiffos/ChiffOS/libc/libc.a(lib_a-callocr.o)
 .debug_info    0x00002c0a      0x8db /home/kosmick/chiffos/ChiffOS/libc/libc.a(lib_a-exit.o)
 .debug_info    0x000034e5      0x9cb /home/kosmick/chiffos/ChiffOS/libc/libc.a(lib_a-fclose.o)
 .debug_info    0x00003eb0      0xa89 /home/kosmick/chiffos/ChiffOS/libc/libc.a(lib_a-fflush.o)
 .debug_info    0x00004939       0xac /home/kosmick/chiffos/ChiffOS/libc/libc.a(lib_a-ffs.o)
 .debug_info    0x000049e5      0xd09 /home/kosmick/chiffos/ChiffOS/libc/libc.a(lib_a-findfp.o)
 .debug_info    0x000056ee      0x9b0 /home/kosmick/chiffos/ChiffOS/libc/libc.a(lib_a-fiprintf.o)
 .debug_info    0x0000609e      0xa62 /home/kosmick/chiffos/ChiffOS/libc/libc.a(lib_a-fopen.o)
 .debug_info    0x00006b00      0x9b0 /home/kosmick/chiffos/ChiffOS/libc/libc.a(lib_a-fprintf.o)
 .debug_info    0x000074b0      0x975 /home/kosmick/chiffos/ChiffOS/libc/libc.a(lib_a-fputc.o)
 .debug_info    0x00007e25      0xa22 /home/kosmick/chiffos/ChiffOS/libc/libc.a(lib_a-fputs.o)
 .debug_info    0x00008847      0xaf3 /home/kosmick/chiffos/ChiffOS/libc/libc.a(lib_a-fread.o)
 .debug_info    0x0000933a      0xbf5 /home/kosmick/chiffos/ChiffOS/libc/libc.a(lib_a-freer.o)
 .debug_info    0x00009f2f      0xd9b /home/kosmick/chiffos/ChiffOS/libc/libc.a(lib_a-fseek.o)
 .debug_info    0x0000acca      0xa55 /home/kosmick/chiffos/ChiffOS/libc/libc.a(lib_a-fstatr.o)
 .debug_info    0x0000b71f      0xc99 /home/kosmick/chiffos/ChiffOS/libc/libc.a(lib_a-fvwrite.o)
 .debug_info    0x0000c3b8      0x993 /home/kosmick/chiffos/ChiffOS/libc/libc.a(lib_a-fwalk.o)
 .debug_info    0x0000cd4b      0xa41 /home/kosmick/chiffos/ChiffOS/libc/libc.a(lib_a-fwrite.o)
 .debug_info    0x0000d78c      0x923 /home/kosmick/chiffos/ChiffOS/libc/libc.a(lib_a-getenv.o)
 .debug_info    0x0000e0af      0x9ea /home/kosmick/chiffos/ChiffOS/libc/libc.a(lib_a-getenv_r.o)
 .debug_info    0x0000ea99      0x889 /home/kosmick/chiffos/ChiffOS/libc/libc.a(lib_a-impure.o)
 .debug_info    0x0000f322      0xade /home/kosmick/chiffos/ChiffOS/libc/libc.a(lib_a-makebuf.o)
 .debug_info    0x0000fe00      0x8ff /home/kosmick/chiffos/ChiffOS/libc/libc.a(lib_a-malloc.o)
 .debug_info    0x000106ff      0xd62 /home/kosmick/chiffos/ChiffOS/libc/libc.a(lib_a-mallocr.o)
 .debug_info    0x00011461       0xbd /home/kosmick/chiffos/ChiffOS/libc/libc.a(lib_a-memchr.o)
 .debug_info    0x0001151e       0xbd /home/kosmick/chiffos/ChiffOS/libc/libc.a(lib_a-memcmp.o)
 .debug_info    0x000115db       0xbd /home/kosmick/chiffos/ChiffOS/libc/libc.a(lib_a-memcpy.o)
 .debug_info    0x00011698       0xbe /home/kosmick/chiffos/ChiffOS/libc/libc.a(lib_a-memmove.o)
 .debug_info    0x00011756       0xbd /home/kosmick/chiffos/ChiffOS/libc/libc.a(lib_a-memset.o)
 .debug_info    0x00011813      0x8ab /home/kosmick/chiffos/ChiffOS/libc/libc.a(lib_a-mlock.o)
 .debug_info    0x000120be      0x8fa /home/kosmick/chiffos/ChiffOS/libc/libc.a(lib_a-openr.o)
 .debug_info    0x000129b8      0x999 /home/kosmick/chiffos/ChiffOS/libc/libc.a(lib_a-printf.o)
 .debug_info    0x00013351      0x98f /home/kosmick/chiffos/ChiffOS/libc/libc.a(lib_a-putc.o)
 .debug_info    0x00013ce0      0x91b /home/kosmick/chiffos/ChiffOS/libc/libc.a(lib_a-putchar.o)
 .debug_info    0x000145fb      0x9e4 /home/kosmick/chiffos/ChiffOS/libc/libc.a(lib_a-puts.o)
 .debug_info    0x00014fdf      0xcf2 /home/kosmick/chiffos/ChiffOS/libc/libc.a(lib_a-qsort.o)
 .debug_info    0x00015cd1      0xc8c /home/kosmick/chiffos/ChiffOS/libc/libc.a(lib_a-reallocr.o)
 .debug_info    0x0001695d      0xa24 /home/kosmick/chiffos/ChiffOS/libc/libc.a(lib_a-reent.o)
 .debug_info    0x00017381      0xa4c /home/kosmick/chiffos/ChiffOS/libc/libc.a(lib_a-refill.o)
 .debug_info    0x00017dcd      0x1c3 /home/kosmick/chiffos/ChiffOS/libc/libc.a(lib_a-s_frexp.o)
 .debug_info    0x00017f90      0x15f /home/kosmick/chiffos/ChiffOS/libc/libc.a(lib_a-s_ldexp.o)
 .debug_info    0x000180ef      0x270 /home/kosmick/chiffos/ChiffOS/libc/libc.a(lib_a-s_scalbn.o)
 .debug_info    0x0001835f      0x8e8 /home/kosmick/chiffos/ChiffOS/libc/libc.a(lib_a-sbrkr.o)
 .debug_info    0x00018c47      0x9da /home/kosmick/chiffos/ChiffOS/libc/libc.a(lib_a-sprintf.o)
 .debug_info    0x00019621      0xb5d /home/kosmick/chiffos/ChiffOS/libc/libc.a(lib_a-stdio.o)
 .debug_info    0x0001a17e       0xbd /home/kosmick/chiffos/ChiffOS/libc/libc.a(lib_a-strchr.o)
 .debug_info    0x0001a23b       0xdd /home/kosmick/chiffos/ChiffOS/libc/libc.a(lib_a-strcmp.o)
 .debug_info    0x0001a318      0x10f /home/kosmick/chiffos/ChiffOS/libc/libc.a(lib_a-strcpy.o)
 .debug_info    0x0001a427       0xbd /home/kosmick/chiffos/ChiffOS/libc/libc.a(lib_a-strlen.o)
 .debug_info    0x0001a4e4       0xfa /home/kosmick/chiffos/ChiffOS/libc/libc.a(lib_a-strncat.o)
 .debug_info    0x0001a5de       0xea /home/kosmick/chiffos/ChiffOS/libc/libc.a(lib_a-strncmp.o)
 .debug_info    0x0001a6c8      0x11e /home/kosmick/chiffos/ChiffOS/libc/libc.a(lib_a-strncpy.o)
 .debug_info    0x0001a7e6      0x4f3 /home/kosmick/chiffos/ChiffOS/libc/libc.a(lib_a-strstr.o)
 .debug_info    0x0001acd9     0x17a1 /home/kosmick/chiffos/ChiffOS/libc/libc.a(lib_a-strtod.o)
 .debug_info    0x0001c47a      0x99b /home/kosmick/chiffos/ChiffOS/libc/libc.a(lib_a-strtol.o)
 .debug_info    0x0001ce15     0x16cc /home/kosmick/chiffos/ChiffOS/libc/libc.a(lib_a-svfprintf.o)
 .debug_info    0x0001e4e1     0x3438 /home/kosmick/chiffos/ChiffOS/libc/libc.a(lib_a-syscalls.o)
 .debug_info    0x00021919     0x157e /home/kosmick/chiffos/ChiffOS/libc/libc.a(lib_a-vfiprintf.o)
 .debug_info    0x00022e97     0x1880 /home/kosmick/chiffos/ChiffOS/libc/libc.a(lib_a-vfprintf.o)
 .debug_info    0x00024717      0x9d9 /home/kosmick/chiffos/ChiffOS/libc/libc.a(lib_a-vsnprintf.o)
 .debug_info    0x000250f0      0x9b3 /home/kosmick/chiffos/ChiffOS/libc/libc.a(lib_a-vsprintf.o)
 .debug_info    0x00025aa3      0x9b8 /home/kosmick/chiffos/ChiffOS/libc/libc.a(lib_a-wbuf.o)
 .debug_info    0x0002645b      0x90f /home/kosmick/chiffos/ChiffOS/libc/libc.a(lib_a-writer.o)
 .debug_info    0x00026d6a      0x91a /home/kosmick/chiffos/ChiffOS/libc/libc.a(lib_a-wsetup.o)
 .debug_info    0x00027684      0x937 /home/kosmick/chiffos/ChiffOS/libc/libc.a(lib_a-__call_atexit.o)
 .debug_info    0x00027fbb       0xd6 /home/kosmick/chiffos/ChiffOS/libc/libc.a(lib_a-abort.o)
 .debug_info    0x00028091      0x8c7 /home/kosmick/chiffos/ChiffOS/libc/libc.a(lib_a-closer.o)
 .debug_info    0x00028958       0x96 /home/kosmick/chiffos/ChiffOS/libc/libc.a(lib_a-ctype_.o)
 .debug_info    0x000289ee     0x137f /home/kosmick/chiffos/ChiffOS/libc/libc.a(lib_a-dtoa.o)
 .debug_info    0x00029d6d       0x6a /home/kosmick/chiffos/ChiffOS/libc/libc.a(lib_a-environ.o)
 .debug_info    0x00029dd7      0x8ab /home/kosmick/chiffos/ChiffOS/libc/libc.a(lib_a-envlock.o)
 .debug_info    0x0002a682      0x87e /home/kosmick/chiffos/ChiffOS/libc/libc.a(lib_a-errno.o)
 .debug_info    0x0002af00      0x8cb /home/kosmick/chiffos/ChiffOS/libc/libc.a(lib_a-flags.o)
 .debug_info    0x0002b7cb      0xa7f /home/kosmick/chiffos/ChiffOS/libc/libc.a(lib_a-fputwc.o)
 .debug_info    0x0002c24a     0x11dc /home/kosmick/chiffos/ChiffOS/libc/libc.a(lib_a-gdtoa-gethex.o)
 .debug_info    0x0002d426      0x30d /home/kosmick/chiffos/ChiffOS/libc/libc.a(lib_a-gdtoa-hexnan.o)
 .debug_info    0x0002d733      0x8c7 /home/kosmick/chiffos/ChiffOS/libc/libc.a(lib_a-isattyr.o)
 .debug_info    0x0002dffa      0xbdc /home/kosmick/chiffos/ChiffOS/libc/libc.a(lib_a-locale.o)
 .debug_info    0x0002ebd6      0x913 /home/kosmick/chiffos/ChiffOS/libc/libc.a(lib_a-lseekr.o)
 .debug_info    0x0002f4e9     0x16a7 /home/kosmick/chiffos/ChiffOS/libc/libc.a(lib_a-mprec.o)
 .debug_info    0x00030b90      0x908 /home/kosmick/chiffos/ChiffOS/libc/libc.a(lib_a-readr.o)
 .debug_info    0x00031498      0x178 /home/kosmick/chiffos/ChiffOS/libc/libc.a(lib_a-s_copysign.o)
 .debug_info    0x00031610      0x13b /home/kosmick/chiffos/ChiffOS/libc/libc.a(lib_a-s_finite.o)
 .debug_info    0x0003174b      0x145 /home/kosmick/chiffos/ChiffOS/libc/libc.a(lib_a-s_fpclassify.o)
 .debug_info    0x00031890       0xcd /home/kosmick/chiffos/ChiffOS/libc/libc.a(lib_a-sf_nan.o)
 .debug_info    0x0003195d      0xb6d /home/kosmick/chiffos/ChiffOS/libc/libc.a(lib_a-signal.o)
 .debug_info    0x000324ca      0x941 /home/kosmick/chiffos/ChiffOS/libc/libc.a(lib_a-signalr.o)
 .debug_info    0x00032e0b      0xa1b /home/kosmick/chiffos/ChiffOS/libc/libc.a(lib_a-sscanf.o)
 .debug_info    0x00033826     0x102c /home/kosmick/chiffos/ChiffOS/libc/libc.a(lib_a-svfiprintf.o)
 .debug_info    0x00034852     0x129c /home/kosmick/chiffos/ChiffOS/libc/libc.a(lib_a-svfscanf.o)
 .debug_info    0x00035aee      0xa49 /home/kosmick/chiffos/ChiffOS/libc/libc.a(lib_a-wcrtomb.o)
 .debug_info    0x00036537      0x9a4 /home/kosmick/chiffos/ChiffOS/libc/libc.a(lib_a-wctomb_r.o)
 .debug_info    0x00036edb       0xc2 /home/kosmick/chiffos/ChiffOS/libc/libc.a(lib_a-iswspace.o)
 .debug_info    0x00036f9d      0xa64 /home/kosmick/chiffos/ChiffOS/libc/libc.a(lib_a-mbrtowc.o)
 .debug_info    0x00037a01      0x9dc /home/kosmick/chiffos/ChiffOS/libc/libc.a(lib_a-mbtowc_r.o)
 .debug_info    0x000383dd       0xfb /home/kosmick/chiffos/ChiffOS/libc/libc.a(lib_a-sccl.o)
 .debug_info    0x000384d8      0x99b /home/kosmick/chiffos/ChiffOS/libc/libc.a(lib_a-strtoul.o)
 .debug_info    0x00038e73     0x1157 /home/kosmick/chiffos/ChiffOS/libc/libc.a(lib_a-svfiscanf.o)
 .debug_info    0x00039fca      0xa7e /home/kosmick/chiffos/ChiffOS/libc/libc.a(lib_a-ungetc.o)
 .debug_info    0x0003aa48      0x259 /home/kosmick/chiffos/ChiffOS/libc/libm.a(lib_a-s_atan.o)
 .debug_info    0x0003aca1      0x245 /home/kosmick/chiffos/ChiffOS/libc/libm.a(lib_a-s_cos.o)
 .debug_info    0x0003aee6      0x155 /home/kosmick/chiffos/ChiffOS/libc/libm.a(lib_a-s_fabs.o)
 .debug_info    0x0003b03b      0x1ac /home/kosmick/chiffos/ChiffOS/libc/libm.a(lib_a-s_floor.o)
 .debug_info    0x0003b1e7      0x247 /home/kosmick/chiffos/ChiffOS/libc/libm.a(lib_a-s_sin.o)
 .debug_info    0x0003b42e      0x279 /home/kosmick/chiffos/ChiffOS/libc/libm.a(lib_a-w_asin.o)
 .debug_info    0x0003b6a7      0x240 /home/kosmick/chiffos/ChiffOS/libc/libm.a(lib_a-w_exp.o)
 .debug_info    0x0003b8e7      0x269 /home/kosmick/chiffos/ChiffOS/libc/libm.a(lib_a-w_log.o)
 .debug_info    0x0003bb50      0x383 /home/kosmick/chiffos/ChiffOS/libc/libm.a(lib_a-w_pow.o)
 .debug_info    0x0003bed3      0x213 /home/kosmick/chiffos/ChiffOS/libc/libm.a(lib_a-w_sqrt.o)
 .debug_info    0x0003c0e6      0x355 /home/kosmick/chiffos/ChiffOS/libc/libm.a(lib_a-e_asin.o)
 .debug_info    0x0003c43b      0x36f /home/kosmick/chiffos/ChiffOS/libc/libm.a(lib_a-e_exp.o)
 .debug_info    0x0003c7aa      0x311 /home/kosmick/chiffos/ChiffOS/libc/libm.a(lib_a-e_log.o)
 .debug_info    0x0003cabb      0x784 /home/kosmick/chiffos/ChiffOS/libc/libm.a(lib_a-e_pow.o)
 .debug_info    0x0003d23f      0x451 /home/kosmick/chiffos/ChiffOS/libc/libm.a(lib_a-e_rem_pio2.o)
 .debug_info    0x0003d690      0x224 /home/kosmick/chiffos/ChiffOS/libc/libm.a(lib_a-e_sqrt.o)
 .debug_info    0x0003d8b4      0x237 /home/kosmick/chiffos/ChiffOS/libc/libm.a(lib_a-k_cos.o)
 .debug_info    0x0003daeb      0x389 /home/kosmick/chiffos/ChiffOS/libc/libm.a(lib_a-k_rem_pio2.o)
 .debug_info    0x0003de74      0x207 /home/kosmick/chiffos/ChiffOS/libc/libm.a(lib_a-k_sin.o)
 .debug_info    0x0003e07b       0xbe /home/kosmick/chiffos/ChiffOS/libc/libm.a(lib_a-s_lib_ver.o)
 .debug_info    0x0003e139      0x128 /home/kosmick/chiffos/ChiffOS/libc/libm.a(lib_a-s_matherr.o)
 .debug_info    0x0003e261      0x144 /home/kosmick/chiffos/ChiffOS/libc/libm.a(lib_a-s_nan.o)
 .debug_info    0x0003e3a5      0x22d /home/kosmick/chiffos/ChiffOS/libc/libm.a(lib_a-s_rint.o)

.debug_abbrev   0x00000000     0xd9f5
 .debug_abbrev  0x00000000      0x1c3 ./glxgear.o
 .debug_abbrev  0x000001c3      0x1f8 /home/kosmick/chiffos/ChiffOS/libc/libc.a(lib_a-assert.o)
 .debug_abbrev  0x000003bb      0x1ce /home/kosmick/chiffos/ChiffOS/libc/libc.a(lib_a-atoi.o)
 .debug_abbrev  0x00000589       0xaf /home/kosmick/chiffos/ChiffOS/libc/libc.a(lib_a-bsearch.o)
 .debug_abbrev  0x00000638      0x1d9 /home/kosmick/chiffos/ChiffOS/libc/libc.a(lib_a-calloc.o)
 .debug_abbrev  0x00000811      0x213 /home/kosmick/chiffos/ChiffOS/libc/libc.a(lib_a-callocr.o)
 .debug_abbrev  0x00000a24      0x1e6 /home/kosmick/chiffos/ChiffOS/libc/libc.a(lib_a-exit.o)
 .debug_abbrev  0x00000c0a      0x25e /home/kosmick/chiffos/ChiffOS/libc/libc.a(lib_a-fclose.o)
 .debug_abbrev  0x00000e68      0x272 /home/kosmick/chiffos/ChiffOS/libc/libc.a(lib_a-fflush.o)
 .debug_abbrev  0x000010da       0x62 /home/kosmick/chiffos/ChiffOS/libc/libc.a(lib_a-ffs.o)
 .debug_abbrev  0x0000113c      0x33a /home/kosmick/chiffos/ChiffOS/libc/libc.a(lib_a-findfp.o)
 .debug_abbrev  0x00001476      0x214 /home/kosmick/chiffos/ChiffOS/libc/libc.a(lib_a-fiprintf.o)
 .debug_abbrev  0x0000168a      0x260 /home/kosmick/chiffos/ChiffOS/libc/libc.a(lib_a-fopen.o)
 .debug_abbrev  0x000018ea      0x214 /home/kosmick/chiffos/ChiffOS/libc/libc.a(lib_a-fprintf.o)
 .debug_abbrev  0x00001afe      0x24a /home/kosmick/chiffos/ChiffOS/libc/libc.a(lib_a-fputc.o)
 .debug_abbrev  0x00001d48      0x229 /home/kosmick/chiffos/ChiffOS/libc/libc.a(lib_a-fputs.o)
 .debug_abbrev  0x00001f71      0x25f /home/kosmick/chiffos/ChiffOS/libc/libc.a(lib_a-fread.o)
 .debug_abbrev  0x000021d0      0x279 /home/kosmick/chiffos/ChiffOS/libc/libc.a(lib_a-freer.o)
 .debug_abbrev  0x00002449      0x2c3 /home/kosmick/chiffos/ChiffOS/libc/libc.a(lib_a-fseek.o)
 .debug_abbrev  0x0000270c      0x1e8 /home/kosmick/chiffos/ChiffOS/libc/libc.a(lib_a-fstatr.o)
 .debug_abbrev  0x000028f4      0x247 /home/kosmick/chiffos/ChiffOS/libc/libc.a(lib_a-fvwrite.o)
 .debug_abbrev  0x00002b3b      0x1c2 /home/kosmick/chiffos/ChiffOS/libc/libc.a(lib_a-fwalk.o)
 .debug_abbrev  0x00002cfd      0x238 /home/kosmick/chiffos/ChiffOS/libc/libc.a(lib_a-fwrite.o)
 .debug_abbrev  0x00002f35      0x1d9 /home/kosmick/chiffos/ChiffOS/libc/libc.a(lib_a-getenv.o)
 .debug_abbrev  0x0000310e      0x228 /home/kosmick/chiffos/ChiffOS/libc/libc.a(lib_a-getenv_r.o)
 .debug_abbrev  0x00003336      0x180 /home/kosmick/chiffos/ChiffOS/libc/libc.a(lib_a-impure.o)
 .debug_abbrev  0x000034b6      0x206 /home/kosmick/chiffos/ChiffOS/libc/libc.a(lib_a-makebuf.o)
 .debug_abbrev  0x000036bc      0x1f7 /home/kosmick/chiffos/ChiffOS/libc/libc.a(lib_a-malloc.o)
 .debug_abbrev  0x000038b3      0x2ad /home/kosmick/chiffos/ChiffOS/libc/libc.a(lib_a-mallocr.o)
 .debug_abbrev  0x00003b60       0x14 /home/kosmick/chiffos/ChiffOS/libc/libc.a(lib_a-memchr.o)
 .debug_abbrev  0x00003b74       0x14 /home/kosmick/chiffos/ChiffOS/libc/libc.a(lib_a-memcmp.o)
 .debug_abbrev  0x00003b88       0x14 /home/kosmick/chiffos/ChiffOS/libc/libc.a(lib_a-memcpy.o)
 .debug_abbrev  0x00003b9c       0x14 /home/kosmick/chiffos/ChiffOS/libc/libc.a(lib_a-memmove.o)
 .debug_abbrev  0x00003bb0       0x14 /home/kosmick/chiffos/ChiffOS/libc/libc.a(lib_a-memset.o)
 .debug_abbrev  0x00003bc4      0x19a /home/kosmick/chiffos/ChiffOS/libc/libc.a(lib_a-mlock.o)
 .debug_abbrev  0x00003d5e      0x1ed /home/kosmick/chiffos/ChiffOS/libc/libc.a(lib_a-openr.o)
 .debug_abbrev  0x00003f4b      0x216 /home/kosmick/chiffos/ChiffOS/libc/libc.a(lib_a-printf.o)
 .debug_abbrev  0x00004161      0x22e /home/kosmick/chiffos/ChiffOS/libc/libc.a(lib_a-putc.o)
 .debug_abbrev  0x0000438f      0x1e8 /home/kosmick/chiffos/ChiffOS/libc/libc.a(lib_a-putchar.o)
 .debug_abbrev  0x00004577      0x218 /home/kosmick/chiffos/ChiffOS/libc/libc.a(lib_a-puts.o)
 .debug_abbrev  0x0000478f      0x1c4 /home/kosmick/chiffos/ChiffOS/libc/libc.a(lib_a-qsort.o)
 .debug_abbrev  0x00004953      0x26d /home/kosmick/chiffos/ChiffOS/libc/libc.a(lib_a-reallocr.o)
 .debug_abbrev  0x00004bc0      0x27e /home/kosmick/chiffos/ChiffOS/libc/libc.a(lib_a-reent.o)
 .debug_abbrev  0x00004e3e      0x25f /home/kosmick/chiffos/ChiffOS/libc/libc.a(lib_a-refill.o)
 .debug_abbrev  0x0000509d      0x11f /home/kosmick/chiffos/ChiffOS/libc/libc.a(lib_a-s_frexp.o)
 .debug_abbrev  0x000051bc       0xc0 /home/kosmick/chiffos/ChiffOS/libc/libc.a(lib_a-s_ldexp.o)
 .debug_abbrev  0x0000527c      0x14b /home/kosmick/chiffos/ChiffOS/libc/libc.a(lib_a-s_scalbn.o)
 .debug_abbrev  0x000053c7      0x1fd /home/kosmick/chiffos/ChiffOS/libc/libc.a(lib_a-sbrkr.o)
 .debug_abbrev  0x000055c4      0x216 /home/kosmick/chiffos/ChiffOS/libc/libc.a(lib_a-sprintf.o)
 .debug_abbrev  0x000057da      0x245 /home/kosmick/chiffos/ChiffOS/libc/libc.a(lib_a-stdio.o)
 .debug_abbrev  0x00005a1f       0x14 /home/kosmick/chiffos/ChiffOS/libc/libc.a(lib_a-strchr.o)
 .debug_abbrev  0x00005a33       0x74 /home/kosmick/chiffos/ChiffOS/libc/libc.a(lib_a-strcmp.o)
 .debug_abbrev  0x00005aa7       0x92 /home/kosmick/chiffos/ChiffOS/libc/libc.a(lib_a-strcpy.o)
 .debug_abbrev  0x00005b39       0x14 /home/kosmick/chiffos/ChiffOS/libc/libc.a(lib_a-strlen.o)
 .debug_abbrev  0x00005b4d       0x8c /home/kosmick/chiffos/ChiffOS/libc/libc.a(lib_a-strncat.o)
 .debug_abbrev  0x00005bd9       0x74 /home/kosmick/chiffos/ChiffOS/libc/libc.a(lib_a-strncmp.o)
 .debug_abbrev  0x00005c4d       0x92 /home/kosmick/chiffos/ChiffOS/libc/libc.a(lib_a-strncpy.o)
 .debug_abbrev  0x00005cdf      0x208 /home/kosmick/chiffos/ChiffOS/libc/libc.a(lib_a-strstr.o)
 .debug_abbrev  0x00005ee7      0x3bc /home/kosmick/chiffos/ChiffOS/libc/libc.a(lib_a-strtod.o)
 .debug_abbrev  0x000062a3      0x204 /home/kosmick/chiffos/ChiffOS/libc/libc.a(lib_a-strtol.o)
 .debug_abbrev  0x000064a7      0x371 /home/kosmick/chiffos/ChiffOS/libc/libc.a(lib_a-svfprintf.o)
 .debug_abbrev  0x00006818      0x50b /home/kosmick/chiffos/ChiffOS/libc/libc.a(lib_a-syscalls.o)
 .debug_abbrev  0x00006d23      0x3cc /home/kosmick/chiffos/ChiffOS/libc/libc.a(lib_a-vfiprintf.o)
 .debug_abbrev  0x000070ef      0x3ba /home/kosmick/chiffos/ChiffOS/libc/libc.a(lib_a-vfprintf.o)
 .debug_abbrev  0x000074a9      0x204 /home/kosmick/chiffos/ChiffOS/libc/libc.a(lib_a-vsnprintf.o)
 .debug_abbrev  0x000076ad      0x202 /home/kosmick/chiffos/ChiffOS/libc/libc.a(lib_a-vsprintf.o)
 .debug_abbrev  0x000078af      0x239 /home/kosmick/chiffos/ChiffOS/libc/libc.a(lib_a-wbuf.o)
 .debug_abbrev  0x00007ae8      0x1de /home/kosmick/chiffos/ChiffOS/libc/libc.a(lib_a-writer.o)
 .debug_abbrev  0x00007cc6      0x1f3 /home/kosmick/chiffos/ChiffOS/libc/libc.a(lib_a-wsetup.o)
 .debug_abbrev  0x00007eb9      0x210 /home/kosmick/chiffos/ChiffOS/libc/libc.a(lib_a-__call_atexit.o)
 .debug_abbrev  0x000080c9       0x95 /home/kosmick/chiffos/ChiffOS/libc/libc.a(lib_a-abort.o)
 .debug_abbrev  0x0000815e      0x1d9 /home/kosmick/chiffos/ChiffOS/libc/libc.a(lib_a-closer.o)
 .debug_abbrev  0x00008337       0x5d /home/kosmick/chiffos/ChiffOS/libc/libc.a(lib_a-ctype_.o)
 .debug_abbrev  0x00008394      0x2dc /home/kosmick/chiffos/ChiffOS/libc/libc.a(lib_a-dtoa.o)
 .debug_abbrev  0x00008670       0x56 /home/kosmick/chiffos/ChiffOS/libc/libc.a(lib_a-environ.o)
 .debug_abbrev  0x000086c6      0x19c /home/kosmick/chiffos/ChiffOS/libc/libc.a(lib_a-envlock.o)
 .debug_abbrev  0x00008862      0x18f /home/kosmick/chiffos/ChiffOS/libc/libc.a(lib_a-errno.o)
 .debug_abbrev  0x000089f1      0x1bc /home/kosmick/chiffos/ChiffOS/libc/libc.a(lib_a-flags.o)
 .debug_abbrev  0x00008bad      0x284 /home/kosmick/chiffos/ChiffOS/libc/libc.a(lib_a-fputwc.o)
 .debug_abbrev  0x00008e31      0x388 /home/kosmick/chiffos/ChiffOS/libc/libc.a(lib_a-gdtoa-gethex.o)
 .debug_abbrev  0x000091b9      0x163 /home/kosmick/chiffos/ChiffOS/libc/libc.a(lib_a-gdtoa-hexnan.o)
 .debug_abbrev  0x0000931c      0x1d9 /home/kosmick/chiffos/ChiffOS/libc/libc.a(lib_a-isattyr.o)
 .debug_abbrev  0x000094f5      0x295 /home/kosmick/chiffos/ChiffOS/libc/libc.a(lib_a-locale.o)
 .debug_abbrev  0x0000978a      0x1e8 /home/kosmick/chiffos/ChiffOS/libc/libc.a(lib_a-lseekr.o)
 .debug_abbrev  0x00009972      0x390 /home/kosmick/chiffos/ChiffOS/libc/libc.a(lib_a-mprec.o)
 .debug_abbrev  0x00009d02      0x1d9 /home/kosmick/chiffos/ChiffOS/libc/libc.a(lib_a-readr.o)
 .debug_abbrev  0x00009edb      0x105 /home/kosmick/chiffos/ChiffOS/libc/libc.a(lib_a-s_copysign.o)
 .debug_abbrev  0x00009fe0       0xc8 /home/kosmick/chiffos/ChiffOS/libc/libc.a(lib_a-s_finite.o)
 .debug_abbrev  0x0000a0a8       0xca /home/kosmick/chiffos/ChiffOS/libc/libc.a(lib_a-s_fpclassify.o)
 .debug_abbrev  0x0000a172       0x72 /home/kosmick/chiffos/ChiffOS/libc/libc.a(lib_a-sf_nan.o)
 .debug_abbrev  0x0000a1e4      0x28c /home/kosmick/chiffos/ChiffOS/libc/libc.a(lib_a-signal.o)
 .debug_abbrev  0x0000a470      0x20c /home/kosmick/chiffos/ChiffOS/libc/libc.a(lib_a-signalr.o)
 .debug_abbrev  0x0000a67c      0x223 /home/kosmick/chiffos/ChiffOS/libc/libc.a(lib_a-sscanf.o)
 .debug_abbrev  0x0000a89f      0x2f4 /home/kosmick/chiffos/ChiffOS/libc/libc.a(lib_a-svfiprintf.o)
 .debug_abbrev  0x0000ab93      0x2c6 /home/kosmick/chiffos/ChiffOS/libc/libc.a(lib_a-svfscanf.o)
 .debug_abbrev  0x0000ae59      0x213 /home/kosmick/chiffos/ChiffOS/libc/libc.a(lib_a-wcrtomb.o)
 .debug_abbrev  0x0000b06c      0x203 /home/kosmick/chiffos/ChiffOS/libc/libc.a(lib_a-wctomb_r.o)
 .debug_abbrev  0x0000b26f       0x83 /home/kosmick/chiffos/ChiffOS/libc/libc.a(lib_a-iswspace.o)
 .debug_abbrev  0x0000b2f2      0x204 /home/kosmick/chiffos/ChiffOS/libc/libc.a(lib_a-mbrtowc.o)
 .debug_abbrev  0x0000b4f6      0x212 /home/kosmick/chiffos/ChiffOS/libc/libc.a(lib_a-mbtowc_r.o)
 .debug_abbrev  0x0000b708       0x87 /home/kosmick/chiffos/ChiffOS/libc/libc.a(lib_a-sccl.o)
 .debug_abbrev  0x0000b78f      0x204 /home/kosmick/chiffos/ChiffOS/libc/libc.a(lib_a-strtoul.o)
 .debug_abbrev  0x0000b993      0x32e /home/kosmick/chiffos/ChiffOS/libc/libc.a(lib_a-svfiscanf.o)
 .debug_abbrev  0x0000bcc1      0x24d /home/kosmick/chiffos/ChiffOS/libc/libc.a(lib_a-ungetc.o)
 .debug_abbrev  0x0000bf0e      0x150 /home/kosmick/chiffos/ChiffOS/libc/libm.a(lib_a-s_atan.o)
 .debug_abbrev  0x0000c05e      0x158 /home/kosmick/chiffos/ChiffOS/libc/libm.a(lib_a-s_cos.o)
 .debug_abbrev  0x0000c1b6       0xd5 /home/kosmick/chiffos/ChiffOS/libc/libm.a(lib_a-s_fabs.o)
 .debug_abbrev  0x0000c28b       0xf8 /home/kosmick/chiffos/ChiffOS/libc/libm.a(lib_a-s_floor.o)
 .debug_abbrev  0x0000c383      0x163 /home/kosmick/chiffos/ChiffOS/libc/libm.a(lib_a-s_sin.o)
 .debug_abbrev  0x0000c4e6      0x156 /home/kosmick/chiffos/ChiffOS/libc/libm.a(lib_a-w_asin.o)
 .debug_abbrev  0x0000c63c      0x150 /home/kosmick/chiffos/ChiffOS/libc/libm.a(lib_a-w_exp.o)
 .debug_abbrev  0x0000c78c      0x156 /home/kosmick/chiffos/ChiffOS/libc/libm.a(lib_a-w_log.o)
 .debug_abbrev  0x0000c8e2      0x165 /home/kosmick/chiffos/ChiffOS/libc/libm.a(lib_a-w_pow.o)
 .debug_abbrev  0x0000ca47      0x13a /home/kosmick/chiffos/ChiffOS/libc/libm.a(lib_a-w_sqrt.o)
 .debug_abbrev  0x0000cb81      0x151 /home/kosmick/chiffos/ChiffOS/libc/libm.a(lib_a-e_asin.o)
 .debug_abbrev  0x0000ccd2      0x14f /home/kosmick/chiffos/ChiffOS/libc/libm.a(lib_a-e_exp.o)
 .debug_abbrev  0x0000ce21      0x109 /home/kosmick/chiffos/ChiffOS/libc/libm.a(lib_a-e_log.o)
 .debug_abbrev  0x0000cf2a      0x208 /home/kosmick/chiffos/ChiffOS/libc/libm.a(lib_a-e_pow.o)
 .debug_abbrev  0x0000d132      0x18d /home/kosmick/chiffos/ChiffOS/libc/libm.a(lib_a-e_rem_pio2.o)
 .debug_abbrev  0x0000d2bf      0x105 /home/kosmick/chiffos/ChiffOS/libc/libm.a(lib_a-e_sqrt.o)
 .debug_abbrev  0x0000d3c4       0xfa /home/kosmick/chiffos/ChiffOS/libc/libm.a(lib_a-k_cos.o)
 .debug_abbrev  0x0000d4be      0x14d /home/kosmick/chiffos/ChiffOS/libc/libm.a(lib_a-k_rem_pio2.o)
 .debug_abbrev  0x0000d60b       0xfc /home/kosmick/chiffos/ChiffOS/libc/libm.a(lib_a-k_sin.o)
 .debug_abbrev  0x0000d707       0x4f /home/kosmick/chiffos/ChiffOS/libc/libm.a(lib_a-s_lib_ver.o)
 .debug_abbrev  0x0000d756       0x9a /home/kosmick/chiffos/ChiffOS/libc/libm.a(lib_a-s_matherr.o)
 .debug_abbrev  0x0000d7f0       0xda /home/kosmick/chiffos/ChiffOS/libc/libm.a(lib_a-s_nan.o)
 .debug_abbrev  0x0000d8ca      0x12b /home/kosmick/chiffos/ChiffOS/libc/libm.a(lib_a-s_rint.o)

.debug_aranges  0x00000000      0xfc0
 .debug_aranges
                0x00000000       0x20 ./glxgear.o
 .debug_aranges
                0x00000020       0x20 /home/kosmick/chiffos/ChiffOS/libc/libc.a(lib_a-assert.o)
 .debug_aranges
                0x00000040       0x20 /home/kosmick/chiffos/ChiffOS/libc/libc.a(lib_a-atoi.o)
 .debug_aranges
                0x00000060       0x20 /home/kosmick/chiffos/ChiffOS/libc/libc.a(lib_a-bsearch.o)
 .debug_aranges
                0x00000080       0x20 /home/kosmick/chiffos/ChiffOS/libc/libc.a(lib_a-calloc.o)
 .debug_aranges
                0x000000a0       0x20 /home/kosmick/chiffos/ChiffOS/libc/libc.a(lib_a-callocr.o)
 .debug_aranges
                0x000000c0       0x20 /home/kosmick/chiffos/ChiffOS/libc/libc.a(lib_a-exit.o)
 .debug_aranges
                0x000000e0       0x20 /home/kosmick/chiffos/ChiffOS/libc/libc.a(lib_a-fclose.o)
 .debug_aranges
                0x00000100       0x20 /home/kosmick/chiffos/ChiffOS/libc/libc.a(lib_a-fflush.o)
 .debug_aranges
                0x00000120       0x20 /home/kosmick/chiffos/ChiffOS/libc/libc.a(lib_a-ffs.o)
 .debug_aranges
                0x00000140       0x20 /home/kosmick/chiffos/ChiffOS/libc/libc.a(lib_a-findfp.o)
 .debug_aranges
                0x00000160       0x20 /home/kosmick/chiffos/ChiffOS/libc/libc.a(lib_a-fiprintf.o)
 .debug_aranges
                0x00000180       0x20 /home/kosmick/chiffos/ChiffOS/libc/libc.a(lib_a-fopen.o)
 .debug_aranges
                0x000001a0       0x20 /home/kosmick/chiffos/ChiffOS/libc/libc.a(lib_a-fprintf.o)
 .debug_aranges
                0x000001c0       0x20 /home/kosmick/chiffos/ChiffOS/libc/libc.a(lib_a-fputc.o)
 .debug_aranges
                0x000001e0       0x20 /home/kosmick/chiffos/ChiffOS/libc/libc.a(lib_a-fputs.o)
 .debug_aranges
                0x00000200       0x20 /home/kosmick/chiffos/ChiffOS/libc/libc.a(lib_a-fread.o)
 .debug_aranges
                0x00000220       0x20 /home/kosmick/chiffos/ChiffOS/libc/libc.a(lib_a-freer.o)
 .debug_aranges
                0x00000240       0x20 /home/kosmick/chiffos/ChiffOS/libc/libc.a(lib_a-fseek.o)
 .debug_aranges
                0x00000260       0x20 /home/kosmick/chiffos/ChiffOS/libc/libc.a(lib_a-fstatr.o)
 .debug_aranges
                0x00000280       0x20 /home/kosmick/chiffos/ChiffOS/libc/libc.a(lib_a-fvwrite.o)
 .debug_aranges
                0x000002a0       0x20 /home/kosmick/chiffos/ChiffOS/libc/libc.a(lib_a-fwalk.o)
 .debug_aranges
                0x000002c0       0x20 /home/kosmick/chiffos/ChiffOS/libc/libc.a(lib_a-fwrite.o)
 .debug_aranges
                0x000002e0       0x20 /home/kosmick/chiffos/ChiffOS/libc/libc.a(lib_a-getenv.o)
 .debug_aranges
                0x00000300       0x20 /home/kosmick/chiffos/ChiffOS/libc/libc.a(lib_a-getenv_r.o)
 .debug_aranges
                0x00000320       0x18 /home/kosmick/chiffos/ChiffOS/libc/libc.a(lib_a-impure.o)
 .debug_aranges
                0x00000338       0x20 /home/kosmick/chiffos/ChiffOS/libc/libc.a(lib_a-makebuf.o)
 .debug_aranges
                0x00000358       0x20 /home/kosmick/chiffos/ChiffOS/libc/libc.a(lib_a-malloc.o)
 .debug_aranges
                0x00000378       0x20 /home/kosmick/chiffos/ChiffOS/libc/libc.a(lib_a-mallocr.o)
 .debug_aranges
                0x00000398       0x20 /home/kosmick/chiffos/ChiffOS/libc/libc.a(lib_a-memchr.o)
 .debug_aranges
                0x000003b8       0x20 /home/kosmick/chiffos/ChiffOS/libc/libc.a(lib_a-memcmp.o)
 .debug_aranges
                0x000003d8       0x20 /home/kosmick/chiffos/ChiffOS/libc/libc.a(lib_a-memcpy.o)
 .debug_aranges
                0x000003f8       0x20 /home/kosmick/chiffos/ChiffOS/libc/libc.a(lib_a-memmove.o)
 .debug_aranges
                0x00000418       0x20 /home/kosmick/chiffos/ChiffOS/libc/libc.a(lib_a-memset.o)
 .debug_aranges
                0x00000438       0x20 /home/kosmick/chiffos/ChiffOS/libc/libc.a(lib_a-mlock.o)
 .debug_aranges
                0x00000458       0x20 /home/kosmick/chiffos/ChiffOS/libc/libc.a(lib_a-openr.o)
 .debug_aranges
                0x00000478       0x20 /home/kosmick/chiffos/ChiffOS/libc/libc.a(lib_a-printf.o)
 .debug_aranges
                0x00000498       0x20 /home/kosmick/chiffos/ChiffOS/libc/libc.a(lib_a-putc.o)
 .debug_aranges
                0x000004b8       0x20 /home/kosmick/chiffos/ChiffOS/libc/libc.a(lib_a-putchar.o)
 .debug_aranges
                0x000004d8       0x20 /home/kosmick/chiffos/ChiffOS/libc/libc.a(lib_a-puts.o)
 .debug_aranges
                0x000004f8       0x20 /home/kosmick/chiffos/ChiffOS/libc/libc.a(lib_a-qsort.o)
 .debug_aranges
                0x00000518       0x20 /home/kosmick/chiffos/ChiffOS/libc/libc.a(lib_a-reallocr.o)
 .debug_aranges
                0x00000538       0x20 /home/kosmick/chiffos/ChiffOS/libc/libc.a(lib_a-reent.o)
 .debug_aranges
                0x00000558       0x20 /home/kosmick/chiffos/ChiffOS/libc/libc.a(lib_a-refill.o)
 .debug_aranges
                0x00000578       0x20 /home/kosmick/chiffos/ChiffOS/libc/libc.a(lib_a-s_frexp.o)
 .debug_aranges
                0x00000598       0x20 /home/kosmick/chiffos/ChiffOS/libc/libc.a(lib_a-s_ldexp.o)
 .debug_aranges
                0x000005b8       0x20 /home/kosmick/chiffos/ChiffOS/libc/libc.a(lib_a-s_scalbn.o)
 .debug_aranges
                0x000005d8       0x20 /home/kosmick/chiffos/ChiffOS/libc/libc.a(lib_a-sbrkr.o)
 .debug_aranges
                0x000005f8       0x20 /home/kosmick/chiffos/ChiffOS/libc/libc.a(lib_a-sprintf.o)
 .debug_aranges
                0x00000618       0x20 /home/kosmick/chiffos/ChiffOS/libc/libc.a(lib_a-stdio.o)
 .debug_aranges
                0x00000638       0x20 /home/kosmick/chiffos/ChiffOS/libc/libc.a(lib_a-strchr.o)
 .debug_aranges
                0x00000658       0x20 /home/kosmick/chiffos/ChiffOS/libc/libc.a(lib_a-strcmp.o)
 .debug_aranges
                0x00000678       0x20 /home/kosmick/chiffos/ChiffOS/libc/libc.a(lib_a-strcpy.o)
 .debug_aranges
                0x00000698       0x20 /home/kosmick/chiffos/ChiffOS/libc/libc.a(lib_a-strlen.o)
 .debug_aranges
                0x000006b8       0x20 /home/kosmick/chiffos/ChiffOS/libc/libc.a(lib_a-strncat.o)
 .debug_aranges
                0x000006d8       0x20 /home/kosmick/chiffos/ChiffOS/libc/libc.a(lib_a-strncmp.o)
 .debug_aranges
                0x000006f8       0x20 /home/kosmick/chiffos/ChiffOS/libc/libc.a(lib_a-strncpy.o)
 .debug_aranges
                0x00000718       0x20 /home/kosmick/chiffos/ChiffOS/libc/libc.a(lib_a-strstr.o)
 .debug_aranges
                0x00000738       0x20 /home/kosmick/chiffos/ChiffOS/libc/libc.a(lib_a-strtod.o)
 .debug_aranges
                0x00000758       0x20 /home/kosmick/chiffos/ChiffOS/libc/libc.a(lib_a-strtol.o)
 .debug_aranges
                0x00000778       0x20 /home/kosmick/chiffos/ChiffOS/libc/libc.a(lib_a-svfprintf.o)
 .debug_aranges
                0x00000798       0x20 /home/kosmick/chiffos/ChiffOS/libc/libc.a(lib_a-syscalls.o)
 .debug_aranges
                0x000007b8       0x20 /home/kosmick/chiffos/ChiffOS/libc/libc.a(lib_a-vfiprintf.o)
 .debug_aranges
                0x000007d8       0x20 /home/kosmick/chiffos/ChiffOS/libc/libc.a(lib_a-vfprintf.o)
 .debug_aranges
                0x000007f8       0x20 /home/kosmick/chiffos/ChiffOS/libc/libc.a(lib_a-vsnprintf.o)
 .debug_aranges
                0x00000818       0x20 /home/kosmick/chiffos/ChiffOS/libc/libc.a(lib_a-vsprintf.o)
 .debug_aranges
                0x00000838       0x20 /home/kosmick/chiffos/ChiffOS/libc/libc.a(lib_a-wbuf.o)
 .debug_aranges
                0x00000858       0x20 /home/kosmick/chiffos/ChiffOS/libc/libc.a(lib_a-writer.o)
 .debug_aranges
                0x00000878       0x20 /home/kosmick/chiffos/ChiffOS/libc/libc.a(lib_a-wsetup.o)
 .debug_aranges
                0x00000898       0x20 /home/kosmick/chiffos/ChiffOS/libc/libc.a(lib_a-__call_atexit.o)
 .debug_aranges
                0x000008b8       0x20 /home/kosmick/chiffos/ChiffOS/libc/libc.a(lib_a-abort.o)
 .debug_aranges
                0x000008d8       0x20 /home/kosmick/chiffos/ChiffOS/libc/libc.a(lib_a-closer.o)
 .debug_aranges
                0x000008f8       0x18 /home/kosmick/chiffos/ChiffOS/libc/libc.a(lib_a-ctype_.o)
 .debug_aranges
                0x00000910       0x20 /home/kosmick/chiffos/ChiffOS/libc/libc.a(lib_a-dtoa.o)
 .debug_aranges
                0x00000930       0x18 /home/kosmick/chiffos/ChiffOS/libc/libc.a(lib_a-environ.o)
 .debug_aranges
                0x00000948       0x20 /home/kosmick/chiffos/ChiffOS/libc/libc.a(lib_a-envlock.o)
 .debug_aranges
                0x00000968       0x20 /home/kosmick/chiffos/ChiffOS/libc/libc.a(lib_a-errno.o)
 .debug_aranges
                0x00000988       0x20 /home/kosmick/chiffos/ChiffOS/libc/libc.a(lib_a-flags.o)
 .debug_aranges
                0x000009a8       0x20 /home/kosmick/chiffos/ChiffOS/libc/libc.a(lib_a-fputwc.o)
 .debug_aranges
                0x000009c8       0x20 /home/kosmick/chiffos/ChiffOS/libc/libc.a(lib_a-gdtoa-gethex.o)
 .debug_aranges
                0x000009e8       0x20 /home/kosmick/chiffos/ChiffOS/libc/libc.a(lib_a-gdtoa-hexnan.o)
 .debug_aranges
                0x00000a08       0x20 /home/kosmick/chiffos/ChiffOS/libc/libc.a(lib_a-isattyr.o)
 .debug_aranges
                0x00000a28       0x20 /home/kosmick/chiffos/ChiffOS/libc/libc.a(lib_a-locale.o)
 .debug_aranges
                0x00000a48       0x20 /home/kosmick/chiffos/ChiffOS/libc/libc.a(lib_a-lseekr.o)
 .debug_aranges
                0x00000a68       0x20 /home/kosmick/chiffos/ChiffOS/libc/libc.a(lib_a-mprec.o)
 .debug_aranges
                0x00000a88       0x20 /home/kosmick/chiffos/ChiffOS/libc/libc.a(lib_a-readr.o)
 .debug_aranges
                0x00000aa8       0x20 /home/kosmick/chiffos/ChiffOS/libc/libc.a(lib_a-s_copysign.o)
 .debug_aranges
                0x00000ac8       0x20 /home/kosmick/chiffos/ChiffOS/libc/libc.a(lib_a-s_finite.o)
 .debug_aranges
                0x00000ae8       0x20 /home/kosmick/chiffos/ChiffOS/libc/libc.a(lib_a-s_fpclassify.o)
 .debug_aranges
                0x00000b08       0x20 /home/kosmick/chiffos/ChiffOS/libc/libc.a(lib_a-sf_nan.o)
 .debug_aranges
                0x00000b28       0x20 /home/kosmick/chiffos/ChiffOS/libc/libc.a(lib_a-signal.o)
 .debug_aranges
                0x00000b48       0x20 /home/kosmick/chiffos/ChiffOS/libc/libc.a(lib_a-signalr.o)
 .debug_aranges
                0x00000b68       0x20 /home/kosmick/chiffos/ChiffOS/libc/libc.a(lib_a-sscanf.o)
 .debug_aranges
                0x00000b88       0x20 /home/kosmick/chiffos/ChiffOS/libc/libc.a(lib_a-svfiprintf.o)
 .debug_aranges
                0x00000ba8       0x20 /home/kosmick/chiffos/ChiffOS/libc/libc.a(lib_a-svfscanf.o)
 .debug_aranges
                0x00000bc8       0x20 /home/kosmick/chiffos/ChiffOS/libc/libc.a(lib_a-wcrtomb.o)
 .debug_aranges
                0x00000be8       0x20 /home/kosmick/chiffos/ChiffOS/libc/libc.a(lib_a-wctomb_r.o)
 .debug_aranges
                0x00000c08       0x20 /home/kosmick/chiffos/ChiffOS/libc/libc.a(lib_a-iswspace.o)
 .debug_aranges
                0x00000c28       0x20 /home/kosmick/chiffos/ChiffOS/libc/libc.a(lib_a-mbrtowc.o)
 .debug_aranges
                0x00000c48       0x20 /home/kosmick/chiffos/ChiffOS/libc/libc.a(lib_a-mbtowc_r.o)
 .debug_aranges
                0x00000c68       0x20 /home/kosmick/chiffos/ChiffOS/libc/libc.a(lib_a-sccl.o)
 .debug_aranges
                0x00000c88       0x20 /home/kosmick/chiffos/ChiffOS/libc/libc.a(lib_a-strtoul.o)
 .debug_aranges
                0x00000ca8       0x20 /home/kosmick/chiffos/ChiffOS/libc/libc.a(lib_a-svfiscanf.o)
 .debug_aranges
                0x00000cc8       0x20 /home/kosmick/chiffos/ChiffOS/libc/libc.a(lib_a-ungetc.o)
 .debug_aranges
                0x00000ce8       0x20 /home/kosmick/chiffos/ChiffOS/libc/libm.a(lib_a-s_atan.o)
 .debug_aranges
                0x00000d08       0x20 /home/kosmick/chiffos/ChiffOS/libc/libm.a(lib_a-s_cos.o)
 .debug_aranges
                0x00000d28       0x20 /home/kosmick/chiffos/ChiffOS/libc/libm.a(lib_a-s_fabs.o)
 .debug_aranges
                0x00000d48       0x20 /home/kosmick/chiffos/ChiffOS/libc/libm.a(lib_a-s_floor.o)
 .debug_aranges
                0x00000d68       0x20 /home/kosmick/chiffos/ChiffOS/libc/libm.a(lib_a-s_sin.o)
 .debug_aranges
                0x00000d88       0x20 /home/kosmick/chiffos/ChiffOS/libc/libm.a(lib_a-w_asin.o)
 .debug_aranges
                0x00000da8       0x20 /home/kosmick/chiffos/ChiffOS/libc/libm.a(lib_a-w_exp.o)
 .debug_aranges
                0x00000dc8       0x20 /home/kosmick/chiffos/ChiffOS/libc/libm.a(lib_a-w_log.o)
 .debug_aranges
                0x00000de8       0x20 /home/kosmick/chiffos/ChiffOS/libc/libm.a(lib_a-w_pow.o)
 .debug_aranges
                0x00000e08       0x20 /home/kosmick/chiffos/ChiffOS/libc/libm.a(lib_a-w_sqrt.o)
 .debug_aranges
                0x00000e28       0x20 /home/kosmick/chiffos/ChiffOS/libc/libm.a(lib_a-e_asin.o)
 .debug_aranges
                0x00000e48       0x20 /home/kosmick/chiffos/ChiffOS/libc/libm.a(lib_a-e_exp.o)
 .debug_aranges
                0x00000e68       0x20 /home/kosmick/chiffos/ChiffOS/libc/libm.a(lib_a-e_log.o)
 .debug_aranges
                0x00000e88       0x20 /home/kosmick/chiffos/ChiffOS/libc/libm.a(lib_a-e_pow.o)
 .debug_aranges
                0x00000ea8       0x20 /home/kosmick/chiffos/ChiffOS/libc/libm.a(lib_a-e_rem_pio2.o)
 .debug_aranges
                0x00000ec8       0x20 /home/kosmick/chiffos/ChiffOS/libc/libm.a(lib_a-e_sqrt.o)
 .debug_aranges
                0x00000ee8       0x20 /home/kosmick/chiffos/ChiffOS/libc/libm.a(lib_a-k_cos.o)
 .debug_aranges
                0x00000f08       0x20 /home/kosmick/chiffos/ChiffOS/libc/libm.a(lib_a-k_rem_pio2.o)
 .debug_aranges
                0x00000f28       0x20 /home/kosmick/chiffos/ChiffOS/libc/libm.a(lib_a-k_sin.o)
 .debug_aranges
                0x00000f48       0x18 /home/kosmick/chiffos/ChiffOS/libc/libm.a(lib_a-s_lib_ver.o)
 .debug_aranges
                0x00000f60       0x20 /home/kosmick/chiffos/ChiffOS/libc/libm.a(lib_a-s_matherr.o)
 .debug_aranges
                0x00000f80       0x20 /home/kosmick/chiffos/ChiffOS/libc/libm.a(lib_a-s_nan.o)
 .debug_aranges
                0x00000fa0       0x20 /home/kosmick/chiffos/ChiffOS/libc/libm.a(lib_a-s_rint.o)

.debug_macro    0x00000000     0x77bb
 .debug_macro   0x00000000      0x158 ./glxgear.o
 .debug_macro   0x00000158      0x3e2 ./glxgear.o
 .debug_macro   0x0000053a       0x22 ./glxgear.o
 .debug_macro   0x0000055c      0x166 ./glxgear.o
 .debug_macro   0x000006c2       0x28 ./glxgear.o
 .debug_macro   0x000006ea       0x2e ./glxgear.o
 .debug_macro   0x00000718       0x95 ./glxgear.o
 .debug_macro   0x000007ad       0x3a ./glxgear.o
 .debug_macro   0x000007e7       0x52 ./glxgear.o
 .debug_macro   0x00000839       0x43 ./glxgear.o
 .debug_macro   0x0000087c       0x22 ./glxgear.o
 .debug_macro   0x0000089e       0x91 ./glxgear.o
 .debug_macro   0x0000092f       0x10 ./glxgear.o
 .debug_macro   0x0000093f       0x35 ./glxgear.o
 .debug_macro   0x00000974       0x10 ./glxgear.o
 .debug_macro   0x00000984      0x173 ./glxgear.o
 .debug_macro   0x00000af7       0x16 ./glxgear.o
 .debug_macro   0x00000b0d      0x16d ./glxgear.o
 .debug_macro   0x00000c7a     0x1583 ./glxgear.o
 .debug_macro   0x000021fd     0x45d1 ./glxgear.o
 .debug_macro   0x000067ce      0x214 ./glxgear.o
 .debug_macro   0x000069e2      0x447 ./glxgear.o
 .debug_macro   0x00006e29      0x87e ./glxgear.o
 .debug_macro   0x000076a7       0x9e ./glxgear.o
 .debug_macro   0x00007745       0x76 ./glxgear.o

.debug_line     0x00000000     0xf5cd
 .debug_line    0x00000000      0x4c3 ./glxgear.o
 .debug_line    0x000004c3      0x187 /home/kosmick/chiffos/ChiffOS/libc/libc.a(lib_a-assert.o)
 .debug_line    0x0000064a      0x162 /home/kosmick/chiffos/ChiffOS/libc/libc.a(lib_a-atoi.o)
 .debug_line    0x000007ac       0xe2 /home/kosmick/chiffos/ChiffOS/libc/libc.a(lib_a-bsearch.o)
 .debug_line    0x0000088e      0x15d /home/kosmick/chiffos/ChiffOS/libc/libc.a(lib_a-calloc.o)
 .debug_line    0x000009eb      0x14c /home/kosmick/chiffos/ChiffOS/libc/libc.a(lib_a-callocr.o)
 .debug_line    0x00000b37      0x175 /home/kosmick/chiffos/ChiffOS/libc/libc.a(lib_a-exit.o)
 .debug_line    0x00000cac      0x1ba /home/kosmick/chiffos/ChiffOS/libc/libc.a(lib_a-fclose.o)
 .debug_line    0x00000e66      0x23c /home/kosmick/chiffos/ChiffOS/libc/libc.a(lib_a-fflush.o)
 .debug_line    0x000010a2       0xb4 /home/kosmick/chiffos/ChiffOS/libc/libc.a(lib_a-ffs.o)
 .debug_line    0x00001156      0x24b /home/kosmick/chiffos/ChiffOS/libc/libc.a(lib_a-findfp.o)
 .debug_line    0x000013a1      0x16f /home/kosmick/chiffos/ChiffOS/libc/libc.a(lib_a-fiprintf.o)
 .debug_line    0x00001510      0x19e /home/kosmick/chiffos/ChiffOS/libc/libc.a(lib_a-fopen.o)
 .debug_line    0x000016ae      0x16e /home/kosmick/chiffos/ChiffOS/libc/libc.a(lib_a-fprintf.o)
 .debug_line    0x0000181c      0x17e /home/kosmick/chiffos/ChiffOS/libc/libc.a(lib_a-fputc.o)
 .debug_line    0x0000199a      0x1a7 /home/kosmick/chiffos/ChiffOS/libc/libc.a(lib_a-fputs.o)
 .debug_line    0x00001b41      0x21c /home/kosmick/chiffos/ChiffOS/libc/libc.a(lib_a-fread.o)
 .debug_line    0x00001d5d      0x25e /home/kosmick/chiffos/ChiffOS/libc/libc.a(lib_a-freer.o)
 .debug_line    0x00001fbb      0x2d0 /home/kosmick/chiffos/ChiffOS/libc/libc.a(lib_a-fseek.o)
 .debug_line    0x0000228b      0x178 /home/kosmick/chiffos/ChiffOS/libc/libc.a(lib_a-fstatr.o)
 .debug_line    0x00002403      0x2ce /home/kosmick/chiffos/ChiffOS/libc/libc.a(lib_a-fvwrite.o)
 .debug_line    0x000026d1      0x17d /home/kosmick/chiffos/ChiffOS/libc/libc.a(lib_a-fwalk.o)
 .debug_line    0x0000284e      0x1a4 /home/kosmick/chiffos/ChiffOS/libc/libc.a(lib_a-fwrite.o)
 .debug_line    0x000029f2      0x164 /home/kosmick/chiffos/ChiffOS/libc/libc.a(lib_a-getenv.o)
 .debug_line    0x00002b56      0x1ac /home/kosmick/chiffos/ChiffOS/libc/libc.a(lib_a-getenv_r.o)
 .debug_line    0x00002d02       0xff /home/kosmick/chiffos/ChiffOS/libc/libc.a(lib_a-impure.o)
 .debug_line    0x00002e01      0x1dc /home/kosmick/chiffos/ChiffOS/libc/libc.a(lib_a-makebuf.o)
 .debug_line    0x00002fdd      0x162 /home/kosmick/chiffos/ChiffOS/libc/libc.a(lib_a-malloc.o)
 .debug_line    0x0000313f      0x38d /home/kosmick/chiffos/ChiffOS/libc/libc.a(lib_a-mallocr.o)
 .debug_line    0x000034cc       0xb1 /home/kosmick/chiffos/ChiffOS/libc/libc.a(lib_a-memchr.o)
 .debug_line    0x0000357d       0x99 /home/kosmick/chiffos/ChiffOS/libc/libc.a(lib_a-memcmp.o)
 .debug_line    0x00003616       0x94 /home/kosmick/chiffos/ChiffOS/libc/libc.a(lib_a-memcpy.o)
 .debug_line    0x000036aa       0xbd /home/kosmick/chiffos/ChiffOS/libc/libc.a(lib_a-memmove.o)
 .debug_line    0x00003767       0xad /home/kosmick/chiffos/ChiffOS/libc/libc.a(lib_a-memset.o)
 .debug_line    0x00003814      0x111 /home/kosmick/chiffos/ChiffOS/libc/libc.a(lib_a-mlock.o)
 .debug_line    0x00003925      0x177 /home/kosmick/chiffos/ChiffOS/libc/libc.a(lib_a-openr.o)
 .debug_line    0x00003a9c      0x16f /home/kosmick/chiffos/ChiffOS/libc/libc.a(lib_a-printf.o)
 .debug_line    0x00003c0b      0x1e4 /home/kosmick/chiffos/ChiffOS/libc/libc.a(lib_a-putc.o)
 .debug_line    0x00003def      0x163 /home/kosmick/chiffos/ChiffOS/libc/libc.a(lib_a-putchar.o)
 .debug_line    0x00003f52      0x18e /home/kosmick/chiffos/ChiffOS/libc/libc.a(lib_a-puts.o)
 .debug_line    0x000040e0      0x2bd /home/kosmick/chiffos/ChiffOS/libc/libc.a(lib_a-qsort.o)
 .debug_line    0x0000439d      0x267 /home/kosmick/chiffos/ChiffOS/libc/libc.a(lib_a-reallocr.o)
 .debug_line    0x00004604      0x1a0 /home/kosmick/chiffos/ChiffOS/libc/libc.a(lib_a-reent.o)
 .debug_line    0x000047a4      0x1fe /home/kosmick/chiffos/ChiffOS/libc/libc.a(lib_a-refill.o)
 .debug_line    0x000049a2      0x16c /home/kosmick/chiffos/ChiffOS/libc/libc.a(lib_a-s_frexp.o)
 .debug_line    0x00004b0e      0x12b /home/kosmick/chiffos/ChiffOS/libc/libc.a(lib_a-s_ldexp.o)
 .debug_line    0x00004c39      0x15d /home/kosmick/chiffos/ChiffOS/libc/libc.a(lib_a-s_scalbn.o)
 .debug_line    0x00004d96      0x163 /home/kosmick/chiffos/ChiffOS/libc/libc.a(lib_a-sbrkr.o)
 .debug_line    0x00004ef9      0x190 /home/kosmick/chiffos/ChiffOS/libc/libc.a(lib_a-sprintf.o)
 .debug_line    0x00005089      0x194 /home/kosmick/chiffos/ChiffOS/libc/libc.a(lib_a-stdio.o)
 .debug_line    0x0000521d       0xd8 /home/kosmick/chiffos/ChiffOS/libc/libc.a(lib_a-strchr.o)
 .debug_line    0x000052f5       0xd6 /home/kosmick/chiffos/ChiffOS/libc/libc.a(lib_a-strcmp.o)
 .debug_line    0x000053cb       0xcc /home/kosmick/chiffos/ChiffOS/libc/libc.a(lib_a-strcpy.o)
 .debug_line    0x00005497       0xa4 /home/kosmick/chiffos/ChiffOS/libc/libc.a(lib_a-strlen.o)
 .debug_line    0x0000553b       0xd4 /home/kosmick/chiffos/ChiffOS/libc/libc.a(lib_a-strncat.o)
 .debug_line    0x0000560f      0x10c /home/kosmick/chiffos/ChiffOS/libc/libc.a(lib_a-strncmp.o)
 .debug_line    0x0000571b       0xea /home/kosmick/chiffos/ChiffOS/libc/libc.a(lib_a-strncpy.o)
 .debug_line    0x00005805      0x28f /home/kosmick/chiffos/ChiffOS/libc/libc.a(lib_a-strstr.o)
 .debug_line    0x00005a94      0x5f6 /home/kosmick/chiffos/ChiffOS/libc/libc.a(lib_a-strtod.o)
 .debug_line    0x0000608a      0x1e4 /home/kosmick/chiffos/ChiffOS/libc/libc.a(lib_a-strtol.o)
 .debug_line    0x0000626e      0x91d /home/kosmick/chiffos/ChiffOS/libc/libc.a(lib_a-svfprintf.o)
 .debug_line    0x00006b8b      0x4f1 /home/kosmick/chiffos/ChiffOS/libc/libc.a(lib_a-syscalls.o)
 .debug_line    0x0000707c      0x601 /home/kosmick/chiffos/ChiffOS/libc/libc.a(lib_a-vfiprintf.o)
 .debug_line    0x0000767d      0x963 /home/kosmick/chiffos/ChiffOS/libc/libc.a(lib_a-vfprintf.o)
 .debug_line    0x00007fe0      0x1aa /home/kosmick/chiffos/ChiffOS/libc/libc.a(lib_a-vsnprintf.o)
 .debug_line    0x0000818a      0x184 /home/kosmick/chiffos/ChiffOS/libc/libc.a(lib_a-vsprintf.o)
 .debug_line    0x0000830e      0x1d0 /home/kosmick/chiffos/ChiffOS/libc/libc.a(lib_a-wbuf.o)
 .debug_line    0x000084de      0x170 /home/kosmick/chiffos/ChiffOS/libc/libc.a(lib_a-writer.o)
 .debug_line    0x0000864e      0x1e3 /home/kosmick/chiffos/ChiffOS/libc/libc.a(lib_a-wsetup.o)
 .debug_line    0x00008831      0x152 /home/kosmick/chiffos/ChiffOS/libc/libc.a(lib_a-__call_atexit.o)
 .debug_line    0x00008983      0x10f /home/kosmick/chiffos/ChiffOS/libc/libc.a(lib_a-abort.o)
 .debug_line    0x00008a92      0x170 /home/kosmick/chiffos/ChiffOS/libc/libc.a(lib_a-closer.o)
 .debug_line    0x00008c02       0xa2 /home/kosmick/chiffos/ChiffOS/libc/libc.a(lib_a-ctype_.o)
 .debug_line    0x00008ca4      0x760 /home/kosmick/chiffos/ChiffOS/libc/libc.a(lib_a-dtoa.o)
 .debug_line    0x00009404       0x5a /home/kosmick/chiffos/ChiffOS/libc/libc.a(lib_a-environ.o)
 .debug_line    0x0000945e      0x15f /home/kosmick/chiffos/ChiffOS/libc/libc.a(lib_a-envlock.o)
 .debug_line    0x000095bd      0x119 /home/kosmick/chiffos/ChiffOS/libc/libc.a(lib_a-errno.o)
 .debug_line    0x000096d6      0x142 /home/kosmick/chiffos/ChiffOS/libc/libc.a(lib_a-flags.o)
 .debug_line    0x00009818      0x1d4 /home/kosmick/chiffos/ChiffOS/libc/libc.a(lib_a-fputwc.o)
 .debug_line    0x000099ec      0x3bd /home/kosmick/chiffos/ChiffOS/libc/libc.a(lib_a-gdtoa-gethex.o)
 .debug_line    0x00009da9      0x16d /home/kosmick/chiffos/ChiffOS/libc/libc.a(lib_a-gdtoa-hexnan.o)
 .debug_line    0x00009f16      0x171 /home/kosmick/chiffos/ChiffOS/libc/libc.a(lib_a-isattyr.o)
 .debug_line    0x0000a087      0x1b1 /home/kosmick/chiffos/ChiffOS/libc/libc.a(lib_a-locale.o)
 .debug_line    0x0000a238      0x17b /home/kosmick/chiffos/ChiffOS/libc/libc.a(lib_a-lseekr.o)
 .debug_line    0x0000a3b3      0x66c /home/kosmick/chiffos/ChiffOS/libc/libc.a(lib_a-mprec.o)
 .debug_line    0x0000aa1f      0x16f /home/kosmick/chiffos/ChiffOS/libc/libc.a(lib_a-readr.o)
 .debug_line    0x0000ab8e      0x124 /home/kosmick/chiffos/ChiffOS/libc/libc.a(lib_a-s_copysign.o)
 .debug_line    0x0000acb2      0x11d /home/kosmick/chiffos/ChiffOS/libc/libc.a(lib_a-s_finite.o)
 .debug_line    0x0000adcf      0x139 /home/kosmick/chiffos/ChiffOS/libc/libc.a(lib_a-s_fpclassify.o)
 .debug_line    0x0000af08       0xb0 /home/kosmick/chiffos/ChiffOS/libc/libc.a(lib_a-sf_nan.o)
 .debug_line    0x0000afb8      0x208 /home/kosmick/chiffos/ChiffOS/libc/libc.a(lib_a-signal.o)
 .debug_line    0x0000b1c0      0x17f /home/kosmick/chiffos/ChiffOS/libc/libc.a(lib_a-signalr.o)
 .debug_line    0x0000b33f      0x1a3 /home/kosmick/chiffos/ChiffOS/libc/libc.a(lib_a-sscanf.o)
 .debug_line    0x0000b4e2      0x5a4 /home/kosmick/chiffos/ChiffOS/libc/libc.a(lib_a-svfiprintf.o)
 .debug_line    0x0000ba86      0x5d9 /home/kosmick/chiffos/ChiffOS/libc/libc.a(lib_a-svfscanf.o)
 .debug_line    0x0000c05f      0x188 /home/kosmick/chiffos/ChiffOS/libc/libc.a(lib_a-wcrtomb.o)
 .debug_line    0x0000c1e7      0x188 /home/kosmick/chiffos/ChiffOS/libc/libc.a(lib_a-wctomb_r.o)
 .debug_line    0x0000c36f      0x113 /home/kosmick/chiffos/ChiffOS/libc/libc.a(lib_a-iswspace.o)
 .debug_line    0x0000c482      0x188 /home/kosmick/chiffos/ChiffOS/libc/libc.a(lib_a-mbrtowc.o)
 .debug_line    0x0000c60a      0x192 /home/kosmick/chiffos/ChiffOS/libc/libc.a(lib_a-mbtowc_r.o)
 .debug_line    0x0000c79c      0x101 /home/kosmick/chiffos/ChiffOS/libc/libc.a(lib_a-sccl.o)
 .debug_line    0x0000c89d      0x1e8 /home/kosmick/chiffos/ChiffOS/libc/libc.a(lib_a-strtoul.o)
 .debug_line    0x0000ca85      0x52e /home/kosmick/chiffos/ChiffOS/libc/libc.a(lib_a-svfiscanf.o)
 .debug_line    0x0000cfb3      0x216 /home/kosmick/chiffos/ChiffOS/libc/libc.a(lib_a-ungetc.o)
 .debug_line    0x0000d1c9      0x1af /home/kosmick/chiffos/ChiffOS/libc/libm.a(lib_a-s_atan.o)
 .debug_line    0x0000d378      0x17a /home/kosmick/chiffos/ChiffOS/libc/libm.a(lib_a-s_cos.o)
 .debug_line    0x0000d4f2      0x152 /home/kosmick/chiffos/ChiffOS/libc/libm.a(lib_a-s_fabs.o)
 .debug_line    0x0000d644      0x1a9 /home/kosmick/chiffos/ChiffOS/libc/libm.a(lib_a-s_floor.o)
 .debug_line    0x0000d7ed      0x17b /home/kosmick/chiffos/ChiffOS/libc/libm.a(lib_a-s_sin.o)
 .debug_line    0x0000d968      0x169 /home/kosmick/chiffos/ChiffOS/libc/libm.a(lib_a-w_asin.o)
 .debug_line    0x0000dad1      0x16d /home/kosmick/chiffos/ChiffOS/libc/libm.a(lib_a-w_exp.o)
 .debug_line    0x0000dc3e      0x17f /home/kosmick/chiffos/ChiffOS/libc/libm.a(lib_a-w_log.o)
 .debug_line    0x0000ddbd      0x23d /home/kosmick/chiffos/ChiffOS/libc/libm.a(lib_a-w_pow.o)
 .debug_line    0x0000dffa      0x169 /home/kosmick/chiffos/ChiffOS/libc/libm.a(lib_a-w_sqrt.o)
 .debug_line    0x0000e163      0x19f /home/kosmick/chiffos/ChiffOS/libc/libm.a(lib_a-e_asin.o)
 .debug_line    0x0000e302      0x17e /home/kosmick/chiffos/ChiffOS/libc/libm.a(lib_a-e_exp.o)
 .debug_line    0x0000e480      0x19b /home/kosmick/chiffos/ChiffOS/libc/libm.a(lib_a-e_log.o)
 .debug_line    0x0000e61b      0x2c5 /home/kosmick/chiffos/ChiffOS/libc/libm.a(lib_a-e_pow.o)
 .debug_line    0x0000e8e0      0x1f8 /home/kosmick/chiffos/ChiffOS/libc/libm.a(lib_a-e_rem_pio2.o)
 .debug_line    0x0000ead8      0x1a4 /home/kosmick/chiffos/ChiffOS/libc/libm.a(lib_a-e_sqrt.o)
 .debug_line    0x0000ec7c      0x12e /home/kosmick/chiffos/ChiffOS/libc/libm.a(lib_a-k_cos.o)
 .debug_line    0x0000edaa      0x311 /home/kosmick/chiffos/ChiffOS/libc/libm.a(lib_a-k_rem_pio2.o)
 .debug_line    0x0000f0bb      0x12c /home/kosmick/chiffos/ChiffOS/libc/libm.a(lib_a-k_sin.o)
 .debug_line    0x0000f1e7       0xa5 /home/kosmick/chiffos/ChiffOS/libc/libm.a(lib_a-s_lib_ver.o)
 .debug_line    0x0000f28c       0xb6 /home/kosmick/chiffos/ChiffOS/libc/libm.a(lib_a-s_matherr.o)
 .debug_line    0x0000f342      0x119 /home/kosmick/chiffos/ChiffOS/libc/libm.a(lib_a-s_nan.o)
 .debug_line    0x0000f45b      0x172 /home/kosmick/chiffos/ChiffOS/libc/libm.a(lib_a-s_rint.o)

.debug_str      0x00000000    0x23754
 .debug_str     0x00000000    0x1fb24 ./glxgear.o
                              0x1fce2 (size before relaxing)
 .debug_str     0x0001fb24      0x43f /home/kosmick/chiffos/ChiffOS/libc/libc.a(lib_a-assert.o)
                                0x556 (size before relaxing)
 .debug_str     0x0001ff63       0x55 /home/kosmick/chiffos/ChiffOS/libc/libc.a(lib_a-atoi.o)
                                0x521 (size before relaxing)
 .debug_str     0x0001ffb8       0xb0 /home/kosmick/chiffos/ChiffOS/libc/libc.a(lib_a-bsearch.o)
                                0x197 (size before relaxing)
 .debug_str     0x00020068       0x4a /home/kosmick/chiffos/ChiffOS/libc/libc.a(lib_a-calloc.o)
                                0x527 (size before relaxing)
 .debug_str     0x000200b2       0x7e /home/kosmick/chiffos/ChiffOS/libc/libc.a(lib_a-callocr.o)
                                0x560 (size before relaxing)
 .debug_str     0x00020130       0x48 /home/kosmick/chiffos/ChiffOS/libc/libc.a(lib_a-exit.o)
                                0x537 (size before relaxing)
 .debug_str     0x00020178       0xda /home/kosmick/chiffos/ChiffOS/libc/libc.a(lib_a-fclose.o)
                                0x56a (size before relaxing)
 .debug_str     0x00020252       0x68 /home/kosmick/chiffos/ChiffOS/libc/libc.a(lib_a-fflush.o)
                                0x578 (size before relaxing)
 .debug_str     0x000202ba       0x84 /home/kosmick/chiffos/ChiffOS/libc/libc.a(lib_a-ffs.o)
                                0x154 (size before relaxing)
 .debug_str     0x0002033e       0xd9 /home/kosmick/chiffos/ChiffOS/libc/libc.a(lib_a-findfp.o)
                                0x620 (size before relaxing)
 .debug_str     0x00020417       0x65 /home/kosmick/chiffos/ChiffOS/libc/libc.a(lib_a-fiprintf.o)
                                0x561 (size before relaxing)
 .debug_str     0x0002047c       0x67 /home/kosmick/chiffos/ChiffOS/libc/libc.a(lib_a-fopen.o)
                                0x57f (size before relaxing)
 .debug_str     0x000204e3       0x50 /home/kosmick/chiffos/ChiffOS/libc/libc.a(lib_a-fprintf.o)
                                0x55d (size before relaxing)
 .debug_str     0x00020533       0x4e /home/kosmick/chiffos/ChiffOS/libc/libc.a(lib_a-fputc.o)
                                0x53e (size before relaxing)
 .debug_str     0x00020581       0x96 /home/kosmick/chiffos/ChiffOS/libc/libc.a(lib_a-fputs.o)
                                0x581 (size before relaxing)
 .debug_str     0x00020617       0x74 /home/kosmick/chiffos/ChiffOS/libc/libc.a(lib_a-fread.o)
                                0x57e (size before relaxing)
 .debug_str     0x0002068b      0x112 /home/kosmick/chiffos/ChiffOS/libc/libc.a(lib_a-freer.o)
                                0x680 (size before relaxing)
 .debug_str     0x0002079d      0x145 /home/kosmick/chiffos/ChiffOS/libc/libc.a(lib_a-fseek.o)
                                0x682 (size before relaxing)
 .debug_str     0x000208e2       0x8a /home/kosmick/chiffos/ChiffOS/libc/libc.a(lib_a-fstatr.o)
                                0x60b (size before relaxing)
 .debug_str     0x0002096c       0x7d /home/kosmick/chiffos/ChiffOS/libc/libc.a(lib_a-fvwrite.o)
                                0x5b9 (size before relaxing)
 .debug_str     0x000209e9       0x46 /home/kosmick/chiffos/ChiffOS/libc/libc.a(lib_a-fwalk.o)
                                0x533 (size before relaxing)
 .debug_str     0x00020a2f       0x49 /home/kosmick/chiffos/ChiffOS/libc/libc.a(lib_a-fwrite.o)
                                0x581 (size before relaxing)
 .debug_str     0x00020a78       0x54 /home/kosmick/chiffos/ChiffOS/libc/libc.a(lib_a-getenv.o)
                                0x538 (size before relaxing)
 .debug_str     0x00020acc       0x6f /home/kosmick/chiffos/ChiffOS/libc/libc.a(lib_a-getenv_r.o)
                                0x564 (size before relaxing)
 .debug_str     0x00020b3b       0x44 /home/kosmick/chiffos/ChiffOS/libc/libc.a(lib_a-impure.o)
                                0x52e (size before relaxing)
 .debug_str     0x00020b7f       0x4e /home/kosmick/chiffos/ChiffOS/libc/libc.a(lib_a-makebuf.o)
                                0x630 (size before relaxing)
 .debug_str     0x00020bcd       0x45 /home/kosmick/chiffos/ChiffOS/libc/libc.a(lib_a-malloc.o)
                                0x53b (size before relaxing)
 .debug_str     0x00020c12       0xdf /home/kosmick/chiffos/ChiffOS/libc/libc.a(lib_a-mallocr.o)
                                0x736 (size before relaxing)
 .debug_str     0x00020cf1       0x4d /home/kosmick/chiffos/ChiffOS/libc/libc.a(lib_a-mlock.o)
                                0x537 (size before relaxing)
 .debug_str     0x00020d3e       0x37 /home/kosmick/chiffos/ChiffOS/libc/libc.a(lib_a-openr.o)
                                0x525 (size before relaxing)
 .debug_str     0x00020d75       0x42 /home/kosmick/chiffos/ChiffOS/libc/libc.a(lib_a-printf.o)
                                0x55a (size before relaxing)
 .debug_str     0x00020db7       0x40 /home/kosmick/chiffos/ChiffOS/libc/libc.a(lib_a-putc.o)
                                0x538 (size before relaxing)
 .debug_str     0x00020df7       0x44 /home/kosmick/chiffos/ChiffOS/libc/libc.a(lib_a-putchar.o)
                                0x530 (size before relaxing)
 .debug_str     0x00020e3b       0x3e /home/kosmick/chiffos/ChiffOS/libc/libc.a(lib_a-puts.o)
                                0x56f (size before relaxing)
 .debug_str     0x00020e79       0x63 /home/kosmick/chiffos/ChiffOS/libc/libc.a(lib_a-qsort.o)
                                0x180 (size before relaxing)
 .debug_str     0x00020edc       0x4e /home/kosmick/chiffos/ChiffOS/libc/libc.a(lib_a-reallocr.o)
                                0x608 (size before relaxing)
 .debug_str     0x00020f2a       0x71 /home/kosmick/chiffos/ChiffOS/libc/libc.a(lib_a-reent.o)
                                0x55b (size before relaxing)
 .debug_str     0x00020f9b       0x4a /home/kosmick/chiffos/ChiffOS/libc/libc.a(lib_a-refill.o)
                                0x579 (size before relaxing)
 .debug_str     0x00020fe5       0xd0 /home/kosmick/chiffos/ChiffOS/libc/libc.a(lib_a-s_frexp.o)
                                0x1c4 (size before relaxing)
 .debug_str     0x000210b5       0x4d /home/kosmick/chiffos/ChiffOS/libc/libc.a(lib_a-s_ldexp.o)
                                0x18e (size before relaxing)
 .debug_str     0x00021102       0xa2 /home/kosmick/chiffos/ChiffOS/libc/libc.a(lib_a-s_scalbn.o)
                                0x1df (size before relaxing)
 .debug_str     0x000211a4       0x3c /home/kosmick/chiffos/ChiffOS/libc/libc.a(lib_a-sbrkr.o)
                                0x524 (size before relaxing)
 .debug_str     0x000211e0       0x51 /home/kosmick/chiffos/ChiffOS/libc/libc.a(lib_a-sprintf.o)
                                0x55e (size before relaxing)
 .debug_str     0x00021231       0x90 /home/kosmick/chiffos/ChiffOS/libc/libc.a(lib_a-stdio.o)
                                0x581 (size before relaxing)
 .debug_str     0x000212c1       0x8d /home/kosmick/chiffos/ChiffOS/libc/libc.a(lib_a-strcmp.o)
                                0x15d (size before relaxing)
 .debug_str     0x0002134e       0x62 /home/kosmick/chiffos/ChiffOS/libc/libc.a(lib_a-strcpy.o)
                                0x17f (size before relaxing)
 .debug_str     0x000213b0       0x4d /home/kosmick/chiffos/ChiffOS/libc/libc.a(lib_a-strncat.o)
                                0x16a (size before relaxing)
 .debug_str     0x000213fd       0x3a /home/kosmick/chiffos/ChiffOS/libc/libc.a(lib_a-strncmp.o)
                                0x15f (size before relaxing)
 .debug_str     0x00021437       0x42 /home/kosmick/chiffos/ChiffOS/libc/libc.a(lib_a-strncpy.o)
                                0x187 (size before relaxing)
 .debug_str     0x00021479       0xf4 /home/kosmick/chiffos/ChiffOS/libc/libc.a(lib_a-strstr.o)
                                0x22c (size before relaxing)
 .debug_str     0x0002156d      0x36e /home/kosmick/chiffos/ChiffOS/libc/libc.a(lib_a-strtod.o)
                                0x91f (size before relaxing)
 .debug_str     0x000218db       0x5c /home/kosmick/chiffos/ChiffOS/libc/libc.a(lib_a-strtol.o)
                                0x554 (size before relaxing)
 .debug_str     0x00021937      0x192 /home/kosmick/chiffos/ChiffOS/libc/libc.a(lib_a-svfprintf.o)
                                0x8a1 (size before relaxing)
 .debug_str     0x00021ac9      0x614 /home/kosmick/chiffos/ChiffOS/libc/libc.a(lib_a-syscalls.o)
                                0xd29 (size before relaxing)
 .debug_str     0x000220dd       0x2f /home/kosmick/chiffos/ChiffOS/libc/libc.a(lib_a-vfiprintf.o)
                                0x6d6 (size before relaxing)
 .debug_str     0x0002210c        0x9 /home/kosmick/chiffos/ChiffOS/libc/libc.a(lib_a-vfprintf.o)
                                0x8e4 (size before relaxing)
 .debug_str     0x00022115       0x52 /home/kosmick/chiffos/ChiffOS/libc/libc.a(lib_a-vsnprintf.o)
                                0x569 (size before relaxing)
 .debug_str     0x00022167       0x4f /home/kosmick/chiffos/ChiffOS/libc/libc.a(lib_a-vsprintf.o)
                                0x561 (size before relaxing)
 .debug_str     0x000221b6       0x3e /home/kosmick/chiffos/ChiffOS/libc/libc.a(lib_a-wbuf.o)
                                0x542 (size before relaxing)
 .debug_str     0x000221f4       0x38 /home/kosmick/chiffos/ChiffOS/libc/libc.a(lib_a-writer.o)
                                0x521 (size before relaxing)
 .debug_str     0x0002222c       0x38 /home/kosmick/chiffos/ChiffOS/libc/libc.a(lib_a-wsetup.o)
                                0x53d (size before relaxing)
 .debug_str     0x00022264       0x4e /home/kosmick/chiffos/ChiffOS/libc/libc.a(lib_a-__call_atexit.o)
                                0x548 (size before relaxing)
 .debug_str     0x000222b2       0x3e /home/kosmick/chiffos/ChiffOS/libc/libc.a(lib_a-abort.o)
                                0x167 (size before relaxing)
 .debug_str     0x000222f0       0x38 /home/kosmick/chiffos/ChiffOS/libc/libc.a(lib_a-closer.o)
                                0x518 (size before relaxing)
 .debug_str     0x00022328       0x95 /home/kosmick/chiffos/ChiffOS/libc/libc.a(lib_a-ctype_.o)
                                 0xef (size before relaxing)
 .debug_str     0x000223bd       0xe3 /home/kosmick/chiffos/ChiffOS/libc/libc.a(lib_a-dtoa.o)
                                0x66d (size before relaxing)
 .debug_str     0x000224a0       0x46 /home/kosmick/chiffos/ChiffOS/libc/libc.a(lib_a-environ.o)
                                 0xe7 (size before relaxing)
 .debug_str     0x000224e6       0x4c /home/kosmick/chiffos/ChiffOS/libc/libc.a(lib_a-envlock.o)
                                0x530 (size before relaxing)
 .debug_str     0x00022532       0x83 /home/kosmick/chiffos/ChiffOS/libc/libc.a(lib_a-errno.o)
                                0x516 (size before relaxing)
 .debug_str     0x000225b5       0x3c /home/kosmick/chiffos/ChiffOS/libc/libc.a(lib_a-flags.o)
                                0x515 (size before relaxing)
 .debug_str     0x000225f1       0x60 /home/kosmick/chiffos/ChiffOS/libc/libc.a(lib_a-fputwc.o)
                                0x571 (size before relaxing)
 .debug_str     0x00022651       0xec /home/kosmick/chiffos/ChiffOS/libc/libc.a(lib_a-gdtoa-gethex.o)
                                0x8a6 (size before relaxing)
 .debug_str     0x0002273d       0x47 /home/kosmick/chiffos/ChiffOS/libc/libc.a(lib_a-gdtoa-hexnan.o)
                                0x295 (size before relaxing)
 .debug_str     0x00022784       0x39 /home/kosmick/chiffos/ChiffOS/libc/libc.a(lib_a-isattyr.o)
                                0x51b (size before relaxing)
 .debug_str     0x000227bd      0x152 /home/kosmick/chiffos/ChiffOS/libc/libc.a(lib_a-locale.o)
                                0x78b (size before relaxing)
 .debug_str     0x0002290f       0x38 /home/kosmick/chiffos/ChiffOS/libc/libc.a(lib_a-lseekr.o)
                                0x52c (size before relaxing)
 .debug_str     0x00022947       0x71 /home/kosmick/chiffos/ChiffOS/libc/libc.a(lib_a-mprec.o)
                                0x627 (size before relaxing)
 .debug_str     0x000229b8       0x37 /home/kosmick/chiffos/ChiffOS/libc/libc.a(lib_a-readr.o)
                                0x51e (size before relaxing)
 .debug_str     0x000229ef       0x3d /home/kosmick/chiffos/ChiffOS/libc/libc.a(lib_a-s_copysign.o)
                                0x1b4 (size before relaxing)
 .debug_str     0x00022a2c       0x3b /home/kosmick/chiffos/ChiffOS/libc/libc.a(lib_a-s_finite.o)
                                0x1b5 (size before relaxing)
 .debug_str     0x00022a67       0x3f /home/kosmick/chiffos/ChiffOS/libc/libc.a(lib_a-s_fpclassify.o)
                                0x1b6 (size before relaxing)
 .debug_str     0x00022aa6       0x39 /home/kosmick/chiffos/ChiffOS/libc/libc.a(lib_a-sf_nan.o)
                                0x17b (size before relaxing)
 .debug_str     0x00022adf       0xde /home/kosmick/chiffos/ChiffOS/libc/libc.a(lib_a-signal.o)
                                0x59d (size before relaxing)
 .debug_str     0x00022bbd       0x39 /home/kosmick/chiffos/ChiffOS/libc/libc.a(lib_a-signalr.o)
                                0x52e (size before relaxing)
 .debug_str     0x00022bf6       0x50 /home/kosmick/chiffos/ChiffOS/libc/libc.a(lib_a-sscanf.o)
                                0x563 (size before relaxing)
 .debug_str     0x00022c46        0xe /home/kosmick/chiffos/ChiffOS/libc/libc.a(lib_a-svfiprintf.o)
                                0x6a4 (size before relaxing)
 .debug_str     0x00022c54      0x135 /home/kosmick/chiffos/ChiffOS/libc/libc.a(lib_a-svfscanf.o)
                                0x6fd (size before relaxing)
 .debug_str     0x00022d89       0x4b /home/kosmick/chiffos/ChiffOS/libc/libc.a(lib_a-wcrtomb.o)
                                0x558 (size before relaxing)
 .debug_str     0x00022dd4       0x5b /home/kosmick/chiffos/ChiffOS/libc/libc.a(lib_a-wctomb_r.o)
                                0x567 (size before relaxing)
 .debug_str     0x00022e2f       0x3a /home/kosmick/chiffos/ChiffOS/libc/libc.a(lib_a-iswspace.o)
                                0x174 (size before relaxing)
 .debug_str     0x00022e69       0x4b /home/kosmick/chiffos/ChiffOS/libc/libc.a(lib_a-mbrtowc.o)
                                0x558 (size before relaxing)
 .debug_str     0x00022eb4       0x5a /home/kosmick/chiffos/ChiffOS/libc/libc.a(lib_a-mbtowc_r.o)
                                0x56e (size before relaxing)
 .debug_str     0x00022f0e       0x3f /home/kosmick/chiffos/ChiffOS/libc/libc.a(lib_a-sccl.o)
                                0x169 (size before relaxing)
 .debug_str     0x00022f4d       0x4d /home/kosmick/chiffos/ChiffOS/libc/libc.a(lib_a-strtoul.o)
                                0x557 (size before relaxing)
 .debug_str     0x00022f9a       0x19 /home/kosmick/chiffos/ChiffOS/libc/libc.a(lib_a-svfiscanf.o)
                                0x6a0 (size before relaxing)
 .debug_str     0x00022fb3       0x49 /home/kosmick/chiffos/ChiffOS/libc/libc.a(lib_a-ungetc.o)
                                0x562 (size before relaxing)
 .debug_str     0x00022ffc       0x4f /home/kosmick/chiffos/ChiffOS/libc/libm.a(lib_a-s_atan.o)
                                0x1c5 (size before relaxing)
 .debug_str     0x0002304b       0x63 /home/kosmick/chiffos/ChiffOS/libc/libm.a(lib_a-s_cos.o)
                                0x1d4 (size before relaxing)
 .debug_str     0x000230ae       0x3c /home/kosmick/chiffos/ChiffOS/libc/libm.a(lib_a-s_fabs.o)
                                0x1ad (size before relaxing)
 .debug_str     0x000230ea       0x43 /home/kosmick/chiffos/ChiffOS/libc/libm.a(lib_a-s_floor.o)
                                0x1b9 (size before relaxing)
 .debug_str     0x0002312d       0x36 /home/kosmick/chiffos/ChiffOS/libc/libm.a(lib_a-s_sin.o)
                                0x1d4 (size before relaxing)
 .debug_str     0x00023163       0xbd /home/kosmick/chiffos/ChiffOS/libc/libm.a(lib_a-w_asin.o)
                                0x222 (size before relaxing)
 .debug_str     0x00023220       0x5c /home/kosmick/chiffos/ChiffOS/libc/libm.a(lib_a-w_exp.o)
                                0x227 (size before relaxing)
 .debug_str     0x0002327c       0x44 /home/kosmick/chiffos/ChiffOS/libc/libm.a(lib_a-w_log.o)
                                0x216 (size before relaxing)
 .debug_str     0x000232c0       0x49 /home/kosmick/chiffos/ChiffOS/libc/libm.a(lib_a-w_pow.o)
                                0x222 (size before relaxing)
 .debug_str     0x00023309       0x46 /home/kosmick/chiffos/ChiffOS/libc/libm.a(lib_a-w_sqrt.o)
                                0x21d (size before relaxing)
 .debug_str     0x0002334f       0x54 /home/kosmick/chiffos/ChiffOS/libc/libm.a(lib_a-e_asin.o)
                                0x1ed (size before relaxing)
 .debug_str     0x000233a3       0x5c /home/kosmick/chiffos/ChiffOS/libc/libm.a(lib_a-e_exp.o)
                                0x1fd (size before relaxing)
 .debug_str     0x000233ff       0x49 /home/kosmick/chiffos/ChiffOS/libc/libm.a(lib_a-e_log.o)
                                0x1dd (size before relaxing)
 .debug_str     0x00023448       0x79 /home/kosmick/chiffos/ChiffOS/libc/libm.a(lib_a-e_pow.o)
                                0x231 (size before relaxing)
 .debug_str     0x000234c1       0xa2 /home/kosmick/chiffos/ChiffOS/libc/libm.a(lib_a-e_rem_pio2.o)
                                0x244 (size before relaxing)
 .debug_str     0x00023563       0x37 /home/kosmick/chiffos/ChiffOS/libc/libm.a(lib_a-e_sqrt.o)
                                0x1c6 (size before relaxing)
 .debug_str     0x0002359a       0x36 /home/kosmick/chiffos/ChiffOS/libc/libm.a(lib_a-k_cos.o)
                                0x1b9 (size before relaxing)
 .debug_str     0x000235d0       0x5f /home/kosmick/chiffos/ChiffOS/libc/libm.a(lib_a-k_rem_pio2.o)
                                0x1d2 (size before relaxing)
 .debug_str     0x0002362f       0x36 /home/kosmick/chiffos/ChiffOS/libc/libm.a(lib_a-k_sin.o)
                                0x1b9 (size before relaxing)
 .debug_str     0x00023665       0x3c /home/kosmick/chiffos/ChiffOS/libc/libm.a(lib_a-s_lib_ver.o)
                                0x1cd (size before relaxing)
 .debug_str     0x000236a1       0x3c /home/kosmick/chiffos/ChiffOS/libc/libm.a(lib_a-s_matherr.o)
                                0x19f (size before relaxing)
 .debug_str     0x000236dd       0x38 /home/kosmick/chiffos/ChiffOS/libc/libm.a(lib_a-s_nan.o)
                                0x1a8 (size before relaxing)
 .debug_str     0x00023715       0x3f /home/kosmick/chiffos/ChiffOS/libc/libm.a(lib_a-s_rint.o)
                                0x1c6 (size before relaxing)

.comment        0x00000000       0x11
 .comment       0x00000000       0x11 ./glxgear.o
                                 0x12 (size before relaxing)
 .comment       0x00000000       0x12 /home/kosmick/chiffos/ChiffOS/libc/libOSMesa32.a(osmesa.o)
 .comment       0x00000000       0x12 /home/kosmick/chiffos/ChiffOS/libc/libOSMesa32.a(context.o)
 .comment       0x00000000       0x12 /home/kosmick/chiffos/ChiffOS/libc/libOSMesa32.a(cpuinfo.o)
 .comment       0x00000000       0x12 /home/kosmick/chiffos/ChiffOS/libc/libOSMesa32.a(debug.o)
 .comment       0x00000000       0x12 /home/kosmick/chiffos/ChiffOS/libc/libOSMesa32.a(depth.o)
 .comment       0x00000000       0x12 /home/kosmick/chiffos/ChiffOS/libc/libOSMesa32.a(dlist.o)
 .comment       0x00000000       0x12 /home/kosmick/chiffos/ChiffOS/libc/libOSMesa32.a(enums.o)
 .comment       0x00000000       0x12 /home/kosmick/chiffos/ChiffOS/libc/libOSMesa32.a(eval.o)
 .comment       0x00000000       0x12 /home/kosmick/chiffos/ChiffOS/libc/libOSMesa32.a(extensions.o)
 .comment       0x00000000       0x12 /home/kosmick/chiffos/ChiffOS/libc/libOSMesa32.a(fbobject.o)
 .comment       0x00000000       0x12 /home/kosmick/chiffos/ChiffOS/libc/libOSMesa32.a(feedback.o)
 .comment       0x00000000       0x12 /home/kosmick/chiffos/ChiffOS/libc/libOSMesa32.a(fog.o)
 .comment       0x00000000       0x12 /home/kosmick/chiffos/ChiffOS/libc/libOSMesa32.a(framebuffer.o)
 .comment       0x00000000       0x12 /home/kosmick/chiffos/ChiffOS/libc/libOSMesa32.a(getstring.o)
 .comment       0x00000000       0x12 /home/kosmick/chiffos/ChiffOS/libc/libOSMesa32.a(hash.o)
 .comment       0x00000000       0x12 /home/kosmick/chiffos/ChiffOS/libc/libOSMesa32.a(hint.o)
 .comment       0x00000000       0x12 /home/kosmick/chiffos/ChiffOS/libc/libOSMesa32.a(histogram.o)
 .comment       0x00000000       0x12 /home/kosmick/chiffos/ChiffOS/libc/libOSMesa32.a(image.o)
 .comment       0x00000000       0x12 /home/kosmick/chiffos/ChiffOS/libc/libOSMesa32.a(imports.o)
 .comment       0x00000000       0x12 /home/kosmick/chiffos/ChiffOS/libc/libOSMesa32.a(light.o)
 .comment       0x00000000       0x12 /home/kosmick/chiffos/ChiffOS/libc/libOSMesa32.a(lines.o)
 .comment       0x00000000       0x12 /home/kosmick/chiffos/ChiffOS/libc/libOSMesa32.a(matrix.o)
 .comment       0x00000000       0x12 /home/kosmick/chiffos/ChiffOS/libc/libOSMesa32.a(multisample.o)
 .comment       0x00000000       0x12 /home/kosmick/chiffos/ChiffOS/libc/libOSMesa32.a(pixel.o)
 .comment       0x00000000       0x12 /home/kosmick/chiffos/ChiffOS/libc/libOSMesa32.a(pixelstore.o)
 .comment       0x00000000       0x12 /home/kosmick/chiffos/ChiffOS/libc/libOSMesa32.a(points.o)
 .comment       0x00000000       0x12 /home/kosmick/chiffos/ChiffOS/libc/libOSMesa32.a(polygon.o)
 .comment       0x00000000       0x12 /home/kosmick/chiffos/ChiffOS/libc/libOSMesa32.a(queryobj.o)
 .comment       0x00000000       0x12 /home/kosmick/chiffos/ChiffOS/libc/libOSMesa32.a(rastpos.o)
 .comment       0x00000000       0x12 /home/kosmick/chiffos/ChiffOS/libc/libOSMesa32.a(renderbuffer.o)
 .comment       0x00000000       0x12 /home/kosmick/chiffos/ChiffOS/libc/libOSMesa32.a(scissor.o)
 .comment       0x00000000       0x12 /home/kosmick/chiffos/ChiffOS/libc/libOSMesa32.a(shared.o)
 .comment       0x00000000       0x12 /home/kosmick/chiffos/ChiffOS/libc/libOSMesa32.a(state.o)
 .comment       0x00000000       0x12 /home/kosmick/chiffos/ChiffOS/libc/libOSMesa32.a(stencil.o)
 .comment       0x00000000       0x12 /home/kosmick/chiffos/ChiffOS/libc/libOSMesa32.a(texcompress_s3tc.o)
 .comment       0x00000000       0x12 /home/kosmick/chiffos/ChiffOS/libc/libOSMesa32.a(texcompress_fxt1.o)
 .comment       0x00000000       0x12 /home/kosmick/chiffos/ChiffOS/libc/libOSMesa32.a(texenvprogram.o)
 .comment       0x00000000       0x12 /home/kosmick/chiffos/ChiffOS/libc/libOSMesa32.a(teximage.o)
 .comment       0x00000000       0x12 /home/kosmick/chiffos/ChiffOS/libc/libOSMesa32.a(texobj.o)
 .comment       0x00000000       0x12 /home/kosmick/chiffos/ChiffOS/libc/libOSMesa32.a(texstate.o)
 .comment       0x00000000       0x12 /home/kosmick/chiffos/ChiffOS/libc/libOSMesa32.a(texstore.o)
 .comment       0x00000000       0x12 /home/kosmick/chiffos/ChiffOS/libc/libOSMesa32.a(varray.o)
 .comment       0x00000000       0x12 /home/kosmick/chiffos/ChiffOS/libc/libOSMesa32.a(viewport.o)
 .comment       0x00000000       0x12 /home/kosmick/chiffos/ChiffOS/libc/libOSMesa32.a(vtxfmt.o)
 .comment       0x00000000       0x12 /home/kosmick/chiffos/ChiffOS/libc/libOSMesa32.a(m_matrix.o)
 .comment       0x00000000       0x12 /home/kosmick/chiffos/ChiffOS/libc/libOSMesa32.a(vbo_context.o)
 .comment       0x00000000       0x12 /home/kosmick/chiffos/ChiffOS/libc/libOSMesa32.a(vbo_exec.o)
 .comment       0x00000000       0x12 /home/kosmick/chiffos/ChiffOS/libc/libOSMesa32.a(vbo_exec_api.o)
 .comment       0x00000000       0x12 /home/kosmick/chiffos/ChiffOS/libc/libOSMesa32.a(vbo_exec_array.o)
 .comment       0x00000000       0x12 /home/kosmick/chiffos/ChiffOS/libc/libOSMesa32.a(vbo_exec_draw.o)
 .comment       0x00000000       0x12 /home/kosmick/chiffos/ChiffOS/libc/libOSMesa32.a(vbo_exec_eval.o)
 .comment       0x00000000       0x12 /home/kosmick/chiffos/ChiffOS/libc/libOSMesa32.a(vbo_save.o)
 .comment       0x00000000       0x12 /home/kosmick/chiffos/ChiffOS/libc/libOSMesa32.a(vbo_save_api.o)
 .comment       0x00000000       0x12 /home/kosmick/chiffos/ChiffOS/libc/libOSMesa32.a(vbo_save_draw.o)
 .comment       0x00000000       0x12 /home/kosmick/chiffos/ChiffOS/libc/libOSMesa32.a(vbo_save_loopback.o)
 .comment       0x00000000       0x12 /home/kosmick/chiffos/ChiffOS/libc/libOSMesa32.a(t_context.o)
 .comment       0x00000000       0x12 /home/kosmick/chiffos/ChiffOS/libc/libOSMesa32.a(t_pipeline.o)
 .comment       0x00000000       0x12 /home/kosmick/chiffos/ChiffOS/libc/libOSMesa32.a(t_draw.o)
 .comment       0x00000000       0x12 /home/kosmick/chiffos/ChiffOS/libc/libOSMesa32.a(t_vb_program.o)
 .comment       0x00000000       0x12 /home/kosmick/chiffos/ChiffOS/libc/libOSMesa32.a(t_vb_render.o)
 .comment       0x00000000       0x12 /home/kosmick/chiffos/ChiffOS/libc/libOSMesa32.a(t_vb_texgen.o)
 .comment       0x00000000       0x12 /home/kosmick/chiffos/ChiffOS/libc/libOSMesa32.a(t_vb_texmat.o)
 .comment       0x00000000       0x12 /home/kosmick/chiffos/ChiffOS/libc/libOSMesa32.a(t_vb_vertex.o)
 .comment       0x00000000       0x12 /home/kosmick/chiffos/ChiffOS/libc/libOSMesa32.a(t_vb_fog.o)
 .comment       0x00000000       0x12 /home/kosmick/chiffos/ChiffOS/libc/libOSMesa32.a(t_vb_light.o)
 .comment       0x00000000       0x12 /home/kosmick/chiffos/ChiffOS/libc/libOSMesa32.a(t_vb_normals.o)
 .comment       0x00000000       0x12 /home/kosmick/chiffos/ChiffOS/libc/libOSMesa32.a(t_vb_points.o)
 .comment       0x00000000       0x12 /home/kosmick/chiffos/ChiffOS/libc/libOSMesa32.a(t_vp_build.o)
 .comment       0x00000000       0x12 /home/kosmick/chiffos/ChiffOS/libc/libOSMesa32.a(t_vertex.o)
 .comment       0x00000000       0x12 /home/kosmick/chiffos/ChiffOS/libc/libOSMesa32.a(t_vertex_generic.o)
 .comment       0x00000000       0x12 /home/kosmick/chiffos/ChiffOS/libc/libOSMesa32.a(arbprogram.o)
 .comment       0x00000000       0x12 /home/kosmick/chiffos/ChiffOS/libc/libOSMesa32.a(atifragshader.o)
 .comment       0x00000000       0x12 /home/kosmick/chiffos/ChiffOS/libc/libOSMesa32.a(nvprogram.o)
 .comment       0x00000000       0x12 /home/kosmick/chiffos/ChiffOS/libc/libOSMesa32.a(nvvertparse.o)
 .comment       0x00000000       0x12 /home/kosmick/chiffos/ChiffOS/libc/libOSMesa32.a(program.o)
 .comment       0x00000000       0x12 /home/kosmick/chiffos/ChiffOS/libc/libOSMesa32.a(prog_cache.o)
 .comment       0x00000000       0x12 /home/kosmick/chiffos/ChiffOS/libc/libOSMesa32.a(prog_execute.o)
 .comment       0x00000000       0x12 /home/kosmick/chiffos/ChiffOS/libc/libOSMesa32.a(prog_instruction.o)
 .comment       0x00000000       0x12 /home/kosmick/chiffos/ChiffOS/libc/libOSMesa32.a(prog_noise.o)
 .comment       0x00000000       0x12 /home/kosmick/chiffos/ChiffOS/libc/libOSMesa32.a(prog_parameter.o)
 .comment       0x00000000       0x12 /home/kosmick/chiffos/ChiffOS/libc/libOSMesa32.a(prog_statevars.o)
 .comment       0x00000000       0x12 /home/kosmick/chiffos/ChiffOS/libc/libOSMesa32.a(programopt.o)
 .comment       0x00000000       0x12 /home/kosmick/chiffos/ChiffOS/libc/libOSMesa32.a(shader_api.o)
 .comment       0x00000000       0x12 /home/kosmick/chiffos/ChiffOS/libc/libOSMesa32.a(s_context.o)
 .comment       0x00000000       0x12 /home/kosmick/chiffos/ChiffOS/libc/libOSMesa32.a(s_lines.o)
 .comment       0x00000000       0x12 /home/kosmick/chiffos/ChiffOS/libc/libOSMesa32.a(s_points.o)
 .comment       0x00000000       0x12 /home/kosmick/chiffos/ChiffOS/libc/libOSMesa32.a(s_span.o)
 .comment       0x00000000       0x12 /home/kosmick/chiffos/ChiffOS/libc/libOSMesa32.a(s_stencil.o)
 .comment       0x00000000       0x12 /home/kosmick/chiffos/ChiffOS/libc/libOSMesa32.a(s_texcombine.o)
 .comment       0x00000000       0x12 /home/kosmick/chiffos/ChiffOS/libc/libOSMesa32.a(s_texfilter.o)
 .comment       0x00000000       0x12 /home/kosmick/chiffos/ChiffOS/libc/libOSMesa32.a(s_triangle.o)
 .comment       0x00000000       0x12 /home/kosmick/chiffos/ChiffOS/libc/libOSMesa32.a(ss_context.o)
 .comment       0x00000000       0x12 /home/kosmick/chiffos/ChiffOS/libc/libOSMesa32.a(ss_triangle.o)
 .comment       0x00000000       0x12 /home/kosmick/chiffos/ChiffOS/libc/libOSMesa32.a(driverfuncs.o)
 .comment       0x00000000       0x12 /home/kosmick/chiffos/ChiffOS/libc/libOSMesa32.a(slang_compile.o)
 .comment       0x00000000       0x12 /home/kosmick/chiffos/ChiffOS/libc/libOSMesa32.a(slang_compile_function.o)
 .comment       0x00000000       0x12 /home/kosmick/chiffos/ChiffOS/libc/libOSMesa32.a(slang_compile_operation.o)
 .comment       0x00000000       0x12 /home/kosmick/chiffos/ChiffOS/libc/libOSMesa32.a(slang_compile_struct.o)
 .comment       0x00000000       0x12 /home/kosmick/chiffos/ChiffOS/libc/libOSMesa32.a(slang_compile_variable.o)
 .comment       0x00000000       0x12 /home/kosmick/chiffos/ChiffOS/libc/libOSMesa32.a(slang_link.o)
 .comment       0x00000000       0x12 /home/kosmick/chiffos/ChiffOS/libc/libOSMesa32.a(slang_log.o)
 .comment       0x00000000       0x12 /home/kosmick/chiffos/ChiffOS/libc/libOSMesa32.a(slang_mem.o)
 .comment       0x00000000       0x12 /home/kosmick/chiffos/ChiffOS/libc/libOSMesa32.a(slang_preprocess.o)
 .comment       0x00000000       0x12 /home/kosmick/chiffos/ChiffOS/libc/libOSMesa32.a(slang_simplify.o)
 .comment       0x00000000       0x12 /home/kosmick/chiffos/ChiffOS/libc/libOSMesa32.a(slang_storage.o)
 .comment       0x00000000       0x12 /home/kosmick/chiffos/ChiffOS/libc/libOSMesa32.a(slang_typeinfo.o)
 .comment       0x00000000       0x12 /home/kosmick/chiffos/ChiffOS/libc/libOSMesa32.a(slang_vartable.o)
 .comment       0x00000000       0x12 /home/kosmick/chiffos/ChiffOS/libc/libOSMesa32.a(slang_utility.o)
 .comment       0x00000000       0x12 /home/kosmick/chiffos/ChiffOS/libc/libOSMesa32.a(dispatch.o)
 .comment       0x00000000       0x12 /home/kosmick/chiffos/ChiffOS/libc/libOSMesa32.a(glapi.o)
 .comment       0x00000000       0x12 /home/kosmick/chiffos/ChiffOS/libc/libOSMesa32.a(glapi_getproc.o)
 .comment       0x00000000       0x12 /home/kosmick/chiffos/ChiffOS/libc/libOSMesa32.a(api_arrayelt.o)
 .comment       0x00000000       0x12 /home/kosmick/chiffos/ChiffOS/libc/libOSMesa32.a(api_exec.o)
 .comment       0x00000000       0x12 /home/kosmick/chiffos/ChiffOS/libc/libOSMesa32.a(api_loopback.o)
 .comment       0x00000000       0x12 /home/kosmick/chiffos/ChiffOS/libc/libOSMesa32.a(api_noop.o)
 .comment       0x00000000       0x12 /home/kosmick/chiffos/ChiffOS/libc/libOSMesa32.a(api_validate.o)
 .comment       0x00000000       0x12 /home/kosmick/chiffos/ChiffOS/libc/libOSMesa32.a(accum.o)
 .comment       0x00000000       0x12 /home/kosmick/chiffos/ChiffOS/libc/libOSMesa32.a(attrib.o)
 .comment       0x00000000       0x12 /home/kosmick/chiffos/ChiffOS/libc/libOSMesa32.a(arrayobj.o)
 .comment       0x00000000       0x12 /home/kosmick/chiffos/ChiffOS/libc/libOSMesa32.a(blend.o)
 .comment       0x00000000       0x12 /home/kosmick/chiffos/ChiffOS/libc/libOSMesa32.a(bufferobj.o)
 .comment       0x00000000       0x12 /home/kosmick/chiffos/ChiffOS/libc/libOSMesa32.a(buffers.o)
 .comment       0x00000000       0x12 /home/kosmick/chiffos/ChiffOS/libc/libOSMesa32.a(clear.o)
 .comment       0x00000000       0x12 /home/kosmick/chiffos/ChiffOS/libc/libOSMesa32.a(clip.o)
 .comment       0x00000000       0x12 /home/kosmick/chiffos/ChiffOS/libc/libOSMesa32.a(colortab.o)
 .comment       0x00000000       0x12 /home/kosmick/chiffos/ChiffOS/libc/libOSMesa32.a(convolve.o)
 .comment       0x00000000       0x12 /home/kosmick/chiffos/ChiffOS/libc/libOSMesa32.a(depthstencil.o)
 .comment       0x00000000       0x12 /home/kosmick/chiffos/ChiffOS/libc/libOSMesa32.a(dlopen.o)
 .comment       0x00000000       0x12 /home/kosmick/chiffos/ChiffOS/libc/libOSMesa32.a(drawpix.o)
 .comment       0x00000000       0x12 /home/kosmick/chiffos/ChiffOS/libc/libOSMesa32.a(enable.o)
 .comment       0x00000000       0x12 /home/kosmick/chiffos/ChiffOS/libc/libOSMesa32.a(execmem.o)
 .comment       0x00000000       0x12 /home/kosmick/chiffos/ChiffOS/libc/libOSMesa32.a(ffvertex_prog.o)
 .comment       0x00000000       0x12 /home/kosmick/chiffos/ChiffOS/libc/libOSMesa32.a(get.o)
 .comment       0x00000000       0x12 /home/kosmick/chiffos/ChiffOS/libc/libOSMesa32.a(mipmap.o)
 .comment       0x00000000       0x12 /home/kosmick/chiffos/ChiffOS/libc/libOSMesa32.a(rbadaptors.o)
 .comment       0x00000000       0x12 /home/kosmick/chiffos/ChiffOS/libc/libOSMesa32.a(readpix.o)
 .comment       0x00000000       0x12 /home/kosmick/chiffos/ChiffOS/libc/libOSMesa32.a(shaders.o)
 .comment       0x00000000       0x12 /home/kosmick/chiffos/ChiffOS/libc/libOSMesa32.a(texcompress.o)
 .comment       0x00000000       0x12 /home/kosmick/chiffos/ChiffOS/libc/libOSMesa32.a(texenv.o)
 .comment       0x00000000       0x12 /home/kosmick/chiffos/ChiffOS/libc/libOSMesa32.a(texformat.o)
 .comment       0x00000000       0x12 /home/kosmick/chiffos/ChiffOS/libc/libOSMesa32.a(texgen.o)
 .comment       0x00000000       0x12 /home/kosmick/chiffos/ChiffOS/libc/libOSMesa32.a(texgetimage.o)
 .comment       0x00000000       0x12 /home/kosmick/chiffos/ChiffOS/libc/libOSMesa32.a(texparam.o)
 .comment       0x00000000       0x12 /home/kosmick/chiffos/ChiffOS/libc/libOSMesa32.a(texrender.o)
 .comment       0x00000000       0x12 /home/kosmick/chiffos/ChiffOS/libc/libOSMesa32.a(m_eval.o)
 .comment       0x00000000       0x12 /home/kosmick/chiffos/ChiffOS/libc/libOSMesa32.a(m_translate.o)
 .comment       0x00000000       0x12 /home/kosmick/chiffos/ChiffOS/libc/libOSMesa32.a(m_vector.o)
 .comment       0x00000000       0x12 /home/kosmick/chiffos/ChiffOS/libc/libOSMesa32.a(m_xform.o)
 .comment       0x00000000       0x12 /home/kosmick/chiffos/ChiffOS/libc/libOSMesa32.a(vbo_rebase.o)
 .comment       0x00000000       0x12 /home/kosmick/chiffos/ChiffOS/libc/libOSMesa32.a(vbo_split.o)
 .comment       0x00000000       0x12 /home/kosmick/chiffos/ChiffOS/libc/libOSMesa32.a(vbo_split_copy.o)
 .comment       0x00000000       0x12 /home/kosmick/chiffos/ChiffOS/libc/libOSMesa32.a(vbo_split_inplace.o)
 .comment       0x00000000       0x12 /home/kosmick/chiffos/ChiffOS/libc/libOSMesa32.a(t_rasterpos.o)
 .comment       0x00000000       0x12 /home/kosmick/chiffos/ChiffOS/libc/libOSMesa32.a(arbprogparse.o)
 .comment       0x00000000       0x12 /home/kosmick/chiffos/ChiffOS/libc/libOSMesa32.a(grammar_mesa.o)
 .comment       0x00000000       0x12 /home/kosmick/chiffos/ChiffOS/libc/libOSMesa32.a(nvfragparse.o)
 .comment       0x00000000       0x12 /home/kosmick/chiffos/ChiffOS/libc/libOSMesa32.a(prog_optimize.o)
 .comment       0x00000000       0x12 /home/kosmick/chiffos/ChiffOS/libc/libOSMesa32.a(prog_print.o)
 .comment       0x00000000       0x12 /home/kosmick/chiffos/ChiffOS/libc/libOSMesa32.a(prog_uniform.o)
 .comment       0x00000000       0x12 /home/kosmick/chiffos/ChiffOS/libc/libOSMesa32.a(s_aaline.o)
 .comment       0x00000000       0x12 /home/kosmick/chiffos/ChiffOS/libc/libOSMesa32.a(s_aatriangle.o)
 .comment       0x00000000       0x12 /home/kosmick/chiffos/ChiffOS/libc/libOSMesa32.a(s_accum.o)
 .comment       0x00000000       0x12 /home/kosmick/chiffos/ChiffOS/libc/libOSMesa32.a(s_alpha.o)
 .comment       0x00000000       0x12 /home/kosmick/chiffos/ChiffOS/libc/libOSMesa32.a(s_atifragshader.o)
 .comment       0x00000000       0x12 /home/kosmick/chiffos/ChiffOS/libc/libOSMesa32.a(s_bitmap.o)
 .comment       0x00000000       0x12 /home/kosmick/chiffos/ChiffOS/libc/libOSMesa32.a(s_blend.o)
 .comment       0x00000000       0x12 /home/kosmick/chiffos/ChiffOS/libc/libOSMesa32.a(s_blit.o)
 .comment       0x00000000       0x12 /home/kosmick/chiffos/ChiffOS/libc/libOSMesa32.a(s_clear.o)
 .comment       0x00000000       0x12 /home/kosmick/chiffos/ChiffOS/libc/libOSMesa32.a(s_copypix.o)
 .comment       0x00000000       0x12 /home/kosmick/chiffos/ChiffOS/libc/libOSMesa32.a(s_depth.o)
 .comment       0x00000000       0x12 /home/kosmick/chiffos/ChiffOS/libc/libOSMesa32.a(s_drawpix.o)
 .comment       0x00000000       0x12 /home/kosmick/chiffos/ChiffOS/libc/libOSMesa32.a(s_feedback.o)
 .comment       0x00000000       0x12 /home/kosmick/chiffos/ChiffOS/libc/libOSMesa32.a(s_fog.o)
 .comment       0x00000000       0x12 /home/kosmick/chiffos/ChiffOS/libc/libOSMesa32.a(s_fragprog.o)
 .comment       0x00000000       0x12 /home/kosmick/chiffos/ChiffOS/libc/libOSMesa32.a(s_imaging.o)
 .comment       0x00000000       0x12 /home/kosmick/chiffos/ChiffOS/libc/libOSMesa32.a(s_logic.o)
 .comment       0x00000000       0x12 /home/kosmick/chiffos/ChiffOS/libc/libOSMesa32.a(s_masking.o)
 .comment       0x00000000       0x12 /home/kosmick/chiffos/ChiffOS/libc/libOSMesa32.a(s_readpix.o)
 .comment       0x00000000       0x12 /home/kosmick/chiffos/ChiffOS/libc/libOSMesa32.a(s_texstore.o)
 .comment       0x00000000       0x12 /home/kosmick/chiffos/ChiffOS/libc/libOSMesa32.a(s_zoom.o)
 .comment       0x00000000       0x12 /home/kosmick/chiffos/ChiffOS/libc/libOSMesa32.a(slang_codegen.o)
 .comment       0x00000000       0x12 /home/kosmick/chiffos/ChiffOS/libc/libOSMesa32.a(slang_emit.o)
 .comment       0x00000000       0x12 /home/kosmick/chiffos/ChiffOS/libc/libOSMesa32.a(slang_ir.o)
 .comment       0x00000000       0x12 /home/kosmick/chiffos/ChiffOS/libc/libOSMesa32.a(slang_label.o)
 .comment       0x00000000       0x12 /home/kosmick/chiffos/ChiffOS/libc/libOSMesa32.a(slang_print.o)
 .comment       0x00000000       0x12 /home/kosmick/chiffos/ChiffOS/libc/libOSMesa32.a(slang_builtin.o)
 .comment       0x00000000       0x12 /home/kosmick/chiffos/ChiffOS/libc/libc.a(lib_a-assert.o)
 .comment       0x00000000       0x12 /home/kosmick/chiffos/ChiffOS/libc/libc.a(lib_a-atoi.o)
 .comment       0x00000000       0x12 /home/kosmick/chiffos/ChiffOS/libc/libc.a(lib_a-bsearch.o)
 .comment       0x00000000       0x12 /home/kosmick/chiffos/ChiffOS/libc/libc.a(lib_a-calloc.o)
 .comment       0x00000000       0x12 /home/kosmick/chiffos/ChiffOS/libc/libc.a(lib_a-callocr.o)
 .comment       0x00000000       0x12 /home/kosmick/chiffos/ChiffOS/libc/libc.a(lib_a-exit.o)
 .comment       0x00000000       0x12 /home/kosmick/chiffos/ChiffOS/libc/libc.a(lib_a-fclose.o)
 .comment       0x00000000       0x12 /home/kosmick/chiffos/ChiffOS/libc/libc.a(lib_a-fflush.o)
 .comment       0x00000000       0x12 /home/kosmick/chiffos/ChiffOS/libc/libc.a(lib_a-ffs.o)
 .comment       0x00000000       0x12 /home/kosmick/chiffos/ChiffOS/libc/libc.a(lib_a-findfp.o)
 .comment       0x00000000       0x12 /home/kosmick/chiffos/ChiffOS/libc/libc.a(lib_a-fiprintf.o)
 .comment       0x00000000       0x12 /home/kosmick/chiffos/ChiffOS/libc/libc.a(lib_a-fopen.o)
 .comment       0x00000000       0x12 /home/kosmick/chiffos/ChiffOS/libc/libc.a(lib_a-fprintf.o)
 .comment       0x00000000       0x12 /home/kosmick/chiffos/ChiffOS/libc/libc.a(lib_a-fputc.o)
 .comment       0x00000000       0x12 /home/kosmick/chiffos/ChiffOS/libc/libc.a(lib_a-fputs.o)
 .comment       0x00000000       0x12 /home/kosmick/chiffos/ChiffOS/libc/libc.a(lib_a-fread.o)
 .comment       0x00000000       0x12 /home/kosmick/chiffos/ChiffOS/libc/libc.a(lib_a-freer.o)
 .comment       0x00000000       0x12 /home/kosmick/chiffos/ChiffOS/libc/libc.a(lib_a-fseek.o)
 .comment       0x00000000       0x12 /home/kosmick/chiffos/ChiffOS/libc/libc.a(lib_a-fstatr.o)
 .comment       0x00000000       0x12 /home/kosmick/chiffos/ChiffOS/libc/libc.a(lib_a-fvwrite.o)
 .comment       0x00000000       0x12 /home/kosmick/chiffos/ChiffOS/libc/libc.a(lib_a-fwalk.o)
 .comment       0x00000000       0x12 /home/kosmick/chiffos/ChiffOS/libc/libc.a(lib_a-fwrite.o)
 .comment       0x00000000       0x12 /home/kosmick/chiffos/ChiffOS/libc/libc.a(lib_a-getenv.o)
 .comment       0x00000000       0x12 /home/kosmick/chiffos/ChiffOS/libc/libc.a(lib_a-getenv_r.o)
 .comment       0x00000000       0x12 /home/kosmick/chiffos/ChiffOS/libc/libc.a(lib_a-impure.o)
 .comment       0x00000000       0x12 /home/kosmick/chiffos/ChiffOS/libc/libc.a(lib_a-makebuf.o)
 .comment       0x00000000       0x12 /home/kosmick/chiffos/ChiffOS/libc/libc.a(lib_a-malloc.o)
 .comment       0x00000000       0x12 /home/kosmick/chiffos/ChiffOS/libc/libc.a(lib_a-mallocr.o)
 .comment       0x00000000       0x12 /home/kosmick/chiffos/ChiffOS/libc/libc.a(lib_a-mlock.o)
 .comment       0x00000000       0x12 /home/kosmick/chiffos/ChiffOS/libc/libc.a(lib_a-openr.o)
 .comment       0x00000000       0x12 /home/kosmick/chiffos/ChiffOS/libc/libc.a(lib_a-printf.o)
 .comment       0x00000000       0x12 /home/kosmick/chiffos/ChiffOS/libc/libc.a(lib_a-putc.o)
 .comment       0x00000000       0x12 /home/kosmick/chiffos/ChiffOS/libc/libc.a(lib_a-putchar.o)
 .comment       0x00000000       0x12 /home/kosmick/chiffos/ChiffOS/libc/libc.a(lib_a-puts.o)
 .comment       0x00000000       0x12 /home/kosmick/chiffos/ChiffOS/libc/libc.a(lib_a-qsort.o)
 .comment       0x00000000       0x12 /home/kosmick/chiffos/ChiffOS/libc/libc.a(lib_a-reallocr.o)
 .comment       0x00000000       0x12 /home/kosmick/chiffos/ChiffOS/libc/libc.a(lib_a-reent.o)
 .comment       0x00000000       0x12 /home/kosmick/chiffos/ChiffOS/libc/libc.a(lib_a-refill.o)
 .comment       0x00000000       0x12 /home/kosmick/chiffos/ChiffOS/libc/libc.a(lib_a-s_frexp.o)
 .comment       0x00000000       0x12 /home/kosmick/chiffos/ChiffOS/libc/libc.a(lib_a-s_ldexp.o)
 .comment       0x00000000       0x12 /home/kosmick/chiffos/ChiffOS/libc/libc.a(lib_a-s_scalbn.o)
 .comment       0x00000000       0x12 /home/kosmick/chiffos/ChiffOS/libc/libc.a(lib_a-sbrkr.o)
 .comment       0x00000000       0x12 /home/kosmick/chiffos/ChiffOS/libc/libc.a(lib_a-sprintf.o)
 .comment       0x00000000       0x12 /home/kosmick/chiffos/ChiffOS/libc/libc.a(lib_a-stdio.o)
 .comment       0x00000000       0x12 /home/kosmick/chiffos/ChiffOS/libc/libc.a(lib_a-strcmp.o)
 .comment       0x00000000       0x12 /home/kosmick/chiffos/ChiffOS/libc/libc.a(lib_a-strcpy.o)
 .comment       0x00000000       0x12 /home/kosmick/chiffos/ChiffOS/libc/libc.a(lib_a-strncat.o)
 .comment       0x00000000       0x12 /home/kosmick/chiffos/ChiffOS/libc/libc.a(lib_a-strncmp.o)
 .comment       0x00000000       0x12 /home/kosmick/chiffos/ChiffOS/libc/libc.a(lib_a-strncpy.o)
 .comment       0x00000000       0x12 /home/kosmick/chiffos/ChiffOS/libc/libc.a(lib_a-strstr.o)
 .comment       0x00000000       0x12 /home/kosmick/chiffos/ChiffOS/libc/libc.a(lib_a-strtod.o)
 .comment       0x00000000       0x12 /home/kosmick/chiffos/ChiffOS/libc/libc.a(lib_a-strtol.o)
 .comment       0x00000000       0x12 /home/kosmick/chiffos/ChiffOS/libc/libc.a(lib_a-svfprintf.o)
 .comment       0x00000000       0x12 /home/kosmick/chiffos/ChiffOS/libc/libc.a(lib_a-syscalls.o)
 .comment       0x00000000       0x12 /home/kosmick/chiffos/ChiffOS/libc/libc.a(lib_a-vfiprintf.o)
 .comment       0x00000000       0x12 /home/kosmick/chiffos/ChiffOS/libc/libc.a(lib_a-vfprintf.o)
 .comment       0x00000000       0x12 /home/kosmick/chiffos/ChiffOS/libc/libc.a(lib_a-vsnprintf.o)
 .comment       0x00000000       0x12 /home/kosmick/chiffos/ChiffOS/libc/libc.a(lib_a-vsprintf.o)
 .comment       0x00000000       0x12 /home/kosmick/chiffos/ChiffOS/libc/libc.a(lib_a-wbuf.o)
 .comment       0x00000000       0x12 /home/kosmick/chiffos/ChiffOS/libc/libc.a(lib_a-writer.o)
 .comment       0x00000000       0x12 /home/kosmick/chiffos/ChiffOS/libc/libc.a(lib_a-wsetup.o)
 .comment       0x00000000       0x12 /home/kosmick/chiffos/ChiffOS/libc/libc.a(lib_a-__call_atexit.o)
 .comment       0x00000000       0x12 /home/kosmick/chiffos/ChiffOS/libc/libc.a(lib_a-abort.o)
 .comment       0x00000000       0x12 /home/kosmick/chiffos/ChiffOS/libc/libc.a(lib_a-closer.o)
 .comment       0x00000000       0x12 /home/kosmick/chiffos/ChiffOS/libc/libc.a(lib_a-ctype_.o)
 .comment       0x00000000       0x12 /home/kosmick/chiffos/ChiffOS/libc/libc.a(lib_a-dtoa.o)
 .comment       0x00000000       0x12 /home/kosmick/chiffos/ChiffOS/libc/libc.a(lib_a-environ.o)
 .comment       0x00000000       0x12 /home/kosmick/chiffos/ChiffOS/libc/libc.a(lib_a-envlock.o)
 .comment       0x00000000       0x12 /home/kosmick/chiffos/ChiffOS/libc/libc.a(lib_a-errno.o)
 .comment       0x00000000       0x12 /home/kosmick/chiffos/ChiffOS/libc/libc.a(lib_a-flags.o)
 .comment       0x00000000       0x12 /home/kosmick/chiffos/ChiffOS/libc/libc.a(lib_a-fputwc.o)
 .comment       0x00000000       0x12 /home/kosmick/chiffos/ChiffOS/libc/libc.a(lib_a-gdtoa-gethex.o)
 .comment       0x00000000       0x12 /home/kosmick/chiffos/ChiffOS/libc/libc.a(lib_a-gdtoa-hexnan.o)
 .comment       0x00000000       0x12 /home/kosmick/chiffos/ChiffOS/libc/libc.a(lib_a-isattyr.o)
 .comment       0x00000000       0x12 /home/kosmick/chiffos/ChiffOS/libc/libc.a(lib_a-locale.o)
 .comment       0x00000000       0x12 /home/kosmick/chiffos/ChiffOS/libc/libc.a(lib_a-lseekr.o)
 .comment       0x00000000       0x12 /home/kosmick/chiffos/ChiffOS/libc/libc.a(lib_a-mprec.o)
 .comment       0x00000000       0x12 /home/kosmick/chiffos/ChiffOS/libc/libc.a(lib_a-readr.o)
 .comment       0x00000000       0x12 /home/kosmick/chiffos/ChiffOS/libc/libc.a(lib_a-s_copysign.o)
 .comment       0x00000000       0x12 /home/kosmick/chiffos/ChiffOS/libc/libc.a(lib_a-s_finite.o)
 .comment       0x00000000       0x12 /home/kosmick/chiffos/ChiffOS/libc/libc.a(lib_a-s_fpclassify.o)
 .comment       0x00000000       0x12 /home/kosmick/chiffos/ChiffOS/libc/libc.a(lib_a-sf_nan.o)
 .comment       0x00000000       0x12 /home/kosmick/chiffos/ChiffOS/libc/libc.a(lib_a-signal.o)
 .comment       0x00000000       0x12 /home/kosmick/chiffos/ChiffOS/libc/libc.a(lib_a-signalr.o)
 .comment       0x00000000       0x12 /home/kosmick/chiffos/ChiffOS/libc/libc.a(lib_a-sscanf.o)
 .comment       0x00000000       0x12 /home/kosmick/chiffos/ChiffOS/libc/libc.a(lib_a-svfiprintf.o)
 .comment       0x00000000       0x12 /home/kosmick/chiffos/ChiffOS/libc/libc.a(lib_a-svfscanf.o)
 .comment       0x00000000       0x12 /home/kosmick/chiffos/ChiffOS/libc/libc.a(lib_a-wcrtomb.o)
 .comment       0x00000000       0x12 /home/kosmick/chiffos/ChiffOS/libc/libc.a(lib_a-wctomb_r.o)
 .comment       0x00000000       0x12 /home/kosmick/chiffos/ChiffOS/libc/libc.a(lib_a-iswspace.o)
 .comment       0x00000000       0x12 /home/kosmick/chiffos/ChiffOS/libc/libc.a(lib_a-mbrtowc.o)
 .comment       0x00000000       0x12 /home/kosmick/chiffos/ChiffOS/libc/libc.a(lib_a-mbtowc_r.o)
 .comment       0x00000000       0x12 /home/kosmick/chiffos/ChiffOS/libc/libc.a(lib_a-sccl.o)
 .comment       0x00000000       0x12 /home/kosmick/chiffos/ChiffOS/libc/libc.a(lib_a-strtoul.o)
 .comment       0x00000000       0x12 /home/kosmick/chiffos/ChiffOS/libc/libc.a(lib_a-svfiscanf.o)
 .comment       0x00000000       0x12 /home/kosmick/chiffos/ChiffOS/libc/libc.a(lib_a-ungetc.o)
 .comment       0x00000000       0x12 /home/kosmick/chiffos/ChiffOS/libc/libm.a(lib_a-s_atan.o)
 .comment       0x00000000       0x12 /home/kosmick/chiffos/ChiffOS/libc/libm.a(lib_a-s_cos.o)
 .comment       0x00000000       0x12 /home/kosmick/chiffos/ChiffOS/libc/libm.a(lib_a-s_fabs.o)
 .comment       0x00000000       0x12 /home/kosmick/chiffos/ChiffOS/libc/libm.a(lib_a-s_floor.o)
 .comment       0x00000000       0x12 /home/kosmick/chiffos/ChiffOS/libc/libm.a(lib_a-s_sin.o)
 .comment       0x00000000       0x12 /home/kosmick/chiffos/ChiffOS/libc/libm.a(lib_a-w_asin.o)
 .comment       0x00000000       0x12 /home/kosmick/chiffos/ChiffOS/libc/libm.a(lib_a-w_exp.o)
 .comment       0x00000000       0x12 /home/kosmick/chiffos/ChiffOS/libc/libm.a(lib_a-w_log.o)
 .comment       0x00000000       0x12 /home/kosmick/chiffos/ChiffOS/libc/libm.a(lib_a-w_pow.o)
 .comment       0x00000000       0x12 /home/kosmick/chiffos/ChiffOS/libc/libm.a(lib_a-w_sqrt.o)
 .comment       0x00000000       0x12 /home/kosmick/chiffos/ChiffOS/libc/libm.a(lib_a-e_asin.o)
 .comment       0x00000000       0x12 /home/kosmick/chiffos/ChiffOS/libc/libm.a(lib_a-e_exp.o)
 .comment       0x00000000       0x12 /home/kosmick/chiffos/ChiffOS/libc/libm.a(lib_a-e_log.o)
 .comment       0x00000000       0x12 /home/kosmick/chiffos/ChiffOS/libc/libm.a(lib_a-e_pow.o)
 .comment       0x00000000       0x12 /home/kosmick/chiffos/ChiffOS/libc/libm.a(lib_a-e_rem_pio2.o)
 .comment       0x00000000       0x12 /home/kosmick/chiffos/ChiffOS/libc/libm.a(lib_a-e_sqrt.o)
 .comment       0x00000000       0x12 /home/kosmick/chiffos/ChiffOS/libc/libm.a(lib_a-k_cos.o)
 .comment       0x00000000       0x12 /home/kosmick/chiffos/ChiffOS/libc/libm.a(lib_a-k_rem_pio2.o)
 .comment       0x00000000       0x12 /home/kosmick/chiffos/ChiffOS/libc/libm.a(lib_a-k_sin.o)
 .comment       0x00000000       0x12 /home/kosmick/chiffos/ChiffOS/libc/libm.a(lib_a-s_lib_ver.o)
 .comment       0x00000000       0x12 /home/kosmick/chiffos/ChiffOS/libc/libm.a(lib_a-s_matherr.o)
 .comment       0x00000000       0x12 /home/kosmick/chiffos/ChiffOS/libc/libm.a(lib_a-s_nan.o)
 .comment       0x00000000       0x12 /home/kosmick/chiffos/ChiffOS/libc/libm.a(lib_a-s_rint.o)

.debug_loc      0x00000000    0x1d552
 .debug_loc     0x00000000       0xe4 /home/kosmick/chiffos/ChiffOS/libc/libc.a(lib_a-bsearch.o)
 .debug_loc     0x000000e4      0x1d1 /home/kosmick/chiffos/ChiffOS/libc/libc.a(lib_a-callocr.o)
 .debug_loc     0x000002b5       0x3f /home/kosmick/chiffos/ChiffOS/libc/libc.a(lib_a-fclose.o)
 .debug_loc     0x000002f4      0x10c /home/kosmick/chiffos/ChiffOS/libc/libc.a(lib_a-fflush.o)
 .debug_loc     0x00000400       0x54 /home/kosmick/chiffos/ChiffOS/libc/libc.a(lib_a-ffs.o)
 .debug_loc     0x00000454      0x1c8 /home/kosmick/chiffos/ChiffOS/libc/libc.a(lib_a-findfp.o)
 .debug_loc     0x0000061c       0x58 /home/kosmick/chiffos/ChiffOS/libc/libc.a(lib_a-fiprintf.o)
 .debug_loc     0x00000674       0x9c /home/kosmick/chiffos/ChiffOS/libc/libc.a(lib_a-fopen.o)
 .debug_loc     0x00000710       0x58 /home/kosmick/chiffos/ChiffOS/libc/libc.a(lib_a-fprintf.o)
 .debug_loc     0x00000768       0x13 /home/kosmick/chiffos/ChiffOS/libc/libc.a(lib_a-fputc.o)
 .debug_loc     0x0000077b       0x13 /home/kosmick/chiffos/ChiffOS/libc/libc.a(lib_a-fputs.o)
 .debug_loc     0x0000078e      0x1b4 /home/kosmick/chiffos/ChiffOS/libc/libc.a(lib_a-fread.o)
 .debug_loc     0x00000942      0x369 /home/kosmick/chiffos/ChiffOS/libc/libc.a(lib_a-freer.o)
 .debug_loc     0x00000cab      0x290 /home/kosmick/chiffos/ChiffOS/libc/libc.a(lib_a-fseek.o)
 .debug_loc     0x00000f3b      0x58f /home/kosmick/chiffos/ChiffOS/libc/libc.a(lib_a-fvwrite.o)
 .debug_loc     0x000014ca      0x11c /home/kosmick/chiffos/ChiffOS/libc/libc.a(lib_a-fwalk.o)
 .debug_loc     0x000015e6       0x30 /home/kosmick/chiffos/ChiffOS/libc/libc.a(lib_a-fwrite.o)
 .debug_loc     0x00001616       0xa2 /home/kosmick/chiffos/ChiffOS/libc/libc.a(lib_a-getenv_r.o)
 .debug_loc     0x000016b8       0xaf /home/kosmick/chiffos/ChiffOS/libc/libc.a(lib_a-makebuf.o)
 .debug_loc     0x00001767      0xab6 /home/kosmick/chiffos/ChiffOS/libc/libc.a(lib_a-mallocr.o)
 .debug_loc     0x0000221d       0x6b /home/kosmick/chiffos/ChiffOS/libc/libc.a(lib_a-printf.o)
 .debug_loc     0x00002288       0x31 /home/kosmick/chiffos/ChiffOS/libc/libc.a(lib_a-putc.o)
 .debug_loc     0x000022b9       0x1f /home/kosmick/chiffos/ChiffOS/libc/libc.a(lib_a-puts.o)
 .debug_loc     0x000022d8     0x1944 /home/kosmick/chiffos/ChiffOS/libc/libc.a(lib_a-qsort.o)
 .debug_loc     0x00003c1c      0xd64 /home/kosmick/chiffos/ChiffOS/libc/libc.a(lib_a-reallocr.o)
 .debug_loc     0x00004980      0x118 /home/kosmick/chiffos/ChiffOS/libc/libc.a(lib_a-reent.o)
 .debug_loc     0x00004a98       0x1f /home/kosmick/chiffos/ChiffOS/libc/libc.a(lib_a-refill.o)
 .debug_loc     0x00004ab7      0x109 /home/kosmick/chiffos/ChiffOS/libc/libc.a(lib_a-s_frexp.o)
 .debug_loc     0x00004bc0       0x37 /home/kosmick/chiffos/ChiffOS/libc/libc.a(lib_a-s_ldexp.o)
 .debug_loc     0x00004bf7      0x15d /home/kosmick/chiffos/ChiffOS/libc/libc.a(lib_a-s_scalbn.o)
 .debug_loc     0x00004d54       0x5a /home/kosmick/chiffos/ChiffOS/libc/libc.a(lib_a-sprintf.o)
 .debug_loc     0x00004dae       0x93 /home/kosmick/chiffos/ChiffOS/libc/libc.a(lib_a-stdio.o)
 .debug_loc     0x00004e41       0x94 /home/kosmick/chiffos/ChiffOS/libc/libc.a(lib_a-strcmp.o)
 .debug_loc     0x00004ed5       0xbe /home/kosmick/chiffos/ChiffOS/libc/libc.a(lib_a-strcpy.o)
 .debug_loc     0x00004f93       0xe0 /home/kosmick/chiffos/ChiffOS/libc/libc.a(lib_a-strncat.o)
 .debug_loc     0x00005073      0x13d /home/kosmick/chiffos/ChiffOS/libc/libc.a(lib_a-strncmp.o)
 .debug_loc     0x000051b0      0x180 /home/kosmick/chiffos/ChiffOS/libc/libc.a(lib_a-strncpy.o)
 .debug_loc     0x00005330      0xb8f /home/kosmick/chiffos/ChiffOS/libc/libc.a(lib_a-strstr.o)
 .debug_loc     0x00005ebf     0x1e9e /home/kosmick/chiffos/ChiffOS/libc/libc.a(lib_a-strtod.o)
 .debug_loc     0x00007d5d      0x31a /home/kosmick/chiffos/ChiffOS/libc/libc.a(lib_a-strtol.o)
 .debug_loc     0x00008077     0x27be /home/kosmick/chiffos/ChiffOS/libc/libc.a(lib_a-svfprintf.o)
 .debug_loc     0x0000a835      0xa78 /home/kosmick/chiffos/ChiffOS/libc/libc.a(lib_a-syscalls.o)
 .debug_loc     0x0000b2ad     0x205f /home/kosmick/chiffos/ChiffOS/libc/libc.a(lib_a-vfiprintf.o)
 .debug_loc     0x0000d30c     0x2a07 /home/kosmick/chiffos/ChiffOS/libc/libc.a(lib_a-vfprintf.o)
 .debug_loc     0x0000fd13       0x1e /home/kosmick/chiffos/ChiffOS/libc/libc.a(lib_a-vsnprintf.o)
 .debug_loc     0x0000fd31       0x80 /home/kosmick/chiffos/ChiffOS/libc/libc.a(lib_a-wbuf.o)
 .debug_loc     0x0000fdb1      0x151 /home/kosmick/chiffos/ChiffOS/libc/libc.a(lib_a-__call_atexit.o)
 .debug_loc     0x0000ff02     0x26c4 /home/kosmick/chiffos/ChiffOS/libc/libc.a(lib_a-dtoa.o)
 .debug_loc     0x000125c6       0xb8 /home/kosmick/chiffos/ChiffOS/libc/libc.a(lib_a-flags.o)
 .debug_loc     0x0001267e      0x126 /home/kosmick/chiffos/ChiffOS/libc/libc.a(lib_a-fputwc.o)
 .debug_loc     0x000127a4     0x109a /home/kosmick/chiffos/ChiffOS/libc/libc.a(lib_a-gdtoa-gethex.o)
 .debug_loc     0x0001383e      0x518 /home/kosmick/chiffos/ChiffOS/libc/libc.a(lib_a-gdtoa-hexnan.o)
 .debug_loc     0x00013d56     0x17c5 /home/kosmick/chiffos/ChiffOS/libc/libc.a(lib_a-mprec.o)
 .debug_loc     0x0001551b       0x14 /home/kosmick/chiffos/ChiffOS/libc/libc.a(lib_a-s_copysign.o)
 .debug_loc     0x0001552f       0x7c /home/kosmick/chiffos/ChiffOS/libc/libc.a(lib_a-s_fpclassify.o)
 .debug_loc     0x000155ab       0x72 /home/kosmick/chiffos/ChiffOS/libc/libc.a(lib_a-signal.o)
 .debug_loc     0x0001561d       0x5a /home/kosmick/chiffos/ChiffOS/libc/libc.a(lib_a-sscanf.o)
 .debug_loc     0x00015677     0x13d5 /home/kosmick/chiffos/ChiffOS/libc/libc.a(lib_a-svfiprintf.o)
 .debug_loc     0x00016a4c     0x1841 /home/kosmick/chiffos/ChiffOS/libc/libc.a(lib_a-svfscanf.o)
 .debug_loc     0x0001828d       0x6c /home/kosmick/chiffos/ChiffOS/libc/libc.a(lib_a-wcrtomb.o)
 .debug_loc     0x000182f9       0x42 /home/kosmick/chiffos/ChiffOS/libc/libc.a(lib_a-wctomb_r.o)
 .debug_loc     0x0001833b       0x6c /home/kosmick/chiffos/ChiffOS/libc/libc.a(lib_a-mbrtowc.o)
 .debug_loc     0x000183a7       0x83 /home/kosmick/chiffos/ChiffOS/libc/libc.a(lib_a-mbtowc_r.o)
 .debug_loc     0x0001842a      0x1c2 /home/kosmick/chiffos/ChiffOS/libc/libc.a(lib_a-sccl.o)
 .debug_loc     0x000185ec      0x2c0 /home/kosmick/chiffos/ChiffOS/libc/libc.a(lib_a-strtoul.o)
 .debug_loc     0x000188ac      0xf39 /home/kosmick/chiffos/ChiffOS/libc/libc.a(lib_a-svfiscanf.o)
 .debug_loc     0x000197e5      0x10e /home/kosmick/chiffos/ChiffOS/libc/libc.a(lib_a-ungetc.o)
 .debug_loc     0x000198f3      0x28c /home/kosmick/chiffos/ChiffOS/libc/libm.a(lib_a-s_atan.o)
 .debug_loc     0x00019b7f       0x8b /home/kosmick/chiffos/ChiffOS/libc/libm.a(lib_a-s_cos.o)
 .debug_loc     0x00019c0a       0x2c /home/kosmick/chiffos/ChiffOS/libc/libm.a(lib_a-s_fabs.o)
 .debug_loc     0x00019c36      0x1e1 /home/kosmick/chiffos/ChiffOS/libc/libm.a(lib_a-s_floor.o)
 .debug_loc     0x00019e17       0x8b /home/kosmick/chiffos/ChiffOS/libc/libm.a(lib_a-s_sin.o)
 .debug_loc     0x00019ea2       0x1e /home/kosmick/chiffos/ChiffOS/libc/libm.a(lib_a-w_asin.o)
 .debug_loc     0x00019ec0       0x2d /home/kosmick/chiffos/ChiffOS/libc/libm.a(lib_a-w_exp.o)
 .debug_loc     0x00019eed       0x20 /home/kosmick/chiffos/ChiffOS/libc/libm.a(lib_a-w_log.o)
 .debug_loc     0x00019f0d       0xdb /home/kosmick/chiffos/ChiffOS/libc/libm.a(lib_a-w_pow.o)
 .debug_loc     0x00019fe8       0x2d /home/kosmick/chiffos/ChiffOS/libc/libm.a(lib_a-w_sqrt.o)
 .debug_loc     0x0001a015      0x62b /home/kosmick/chiffos/ChiffOS/libc/libm.a(lib_a-e_asin.o)
 .debug_loc     0x0001a640      0x2e1 /home/kosmick/chiffos/ChiffOS/libc/libm.a(lib_a-e_exp.o)
 .debug_loc     0x0001a921      0x681 /home/kosmick/chiffos/ChiffOS/libc/libm.a(lib_a-e_log.o)
 .debug_loc     0x0001afa2      0xe8f /home/kosmick/chiffos/ChiffOS/libc/libm.a(lib_a-e_pow.o)
 .debug_loc     0x0001be31      0x524 /home/kosmick/chiffos/ChiffOS/libc/libm.a(lib_a-e_rem_pio2.o)
 .debug_loc     0x0001c355      0x38f /home/kosmick/chiffos/ChiffOS/libc/libm.a(lib_a-e_sqrt.o)
 .debug_loc     0x0001c6e4      0x203 /home/kosmick/chiffos/ChiffOS/libc/libm.a(lib_a-k_cos.o)
 .debug_loc     0x0001c8e7      0x958 /home/kosmick/chiffos/ChiffOS/libc/libm.a(lib_a-k_rem_pio2.o)
 .debug_loc     0x0001d23f       0xfd /home/kosmick/chiffos/ChiffOS/libc/libm.a(lib_a-k_sin.o)
 .debug_loc     0x0001d33c       0x18 /home/kosmick/chiffos/ChiffOS/libc/libm.a(lib_a-s_nan.o)
 .debug_loc     0x0001d354      0x1fe /home/kosmick/chiffos/ChiffOS/libc/libm.a(lib_a-s_rint.o)

.debug_ranges   0x00000000     0x1240
 .debug_ranges  0x00000000       0x38 /home/kosmick/chiffos/ChiffOS/libc/libc.a(lib_a-callocr.o)
 .debug_ranges  0x00000038       0x18 /home/kosmick/chiffos/ChiffOS/libc/libc.a(lib_a-fflush.o)
 .debug_ranges  0x00000050       0x18 /home/kosmick/chiffos/ChiffOS/libc/libc.a(lib_a-findfp.o)
 .debug_ranges  0x00000068       0x18 /home/kosmick/chiffos/ChiffOS/libc/libc.a(lib_a-fread.o)
 .debug_ranges  0x00000080       0x20 /home/kosmick/chiffos/ChiffOS/libc/libc.a(lib_a-fvwrite.o)
 .debug_ranges  0x000000a0       0x30 /home/kosmick/chiffos/ChiffOS/libc/libc.a(lib_a-mallocr.o)
 .debug_ranges  0x000000d0      0x3e8 /home/kosmick/chiffos/ChiffOS/libc/libc.a(lib_a-qsort.o)
 .debug_ranges  0x000004b8      0x108 /home/kosmick/chiffos/ChiffOS/libc/libc.a(lib_a-reallocr.o)
 .debug_ranges  0x000005c0       0x18 /home/kosmick/chiffos/ChiffOS/libc/libc.a(lib_a-reent.o)
 .debug_ranges  0x000005d8       0x20 /home/kosmick/chiffos/ChiffOS/libc/libc.a(lib_a-s_frexp.o)
 .debug_ranges  0x000005f8       0x68 /home/kosmick/chiffos/ChiffOS/libc/libc.a(lib_a-strstr.o)
 .debug_ranges  0x00000660       0x58 /home/kosmick/chiffos/ChiffOS/libc/libc.a(lib_a-strtod.o)
 .debug_ranges  0x000006b8      0x120 /home/kosmick/chiffos/ChiffOS/libc/libc.a(lib_a-svfprintf.o)
 .debug_ranges  0x000007d8      0x100 /home/kosmick/chiffos/ChiffOS/libc/libc.a(lib_a-syscalls.o)
 .debug_ranges  0x000008d8      0x188 /home/kosmick/chiffos/ChiffOS/libc/libc.a(lib_a-vfiprintf.o)
 .debug_ranges  0x00000a60      0x130 /home/kosmick/chiffos/ChiffOS/libc/libc.a(lib_a-vfprintf.o)
 .debug_ranges  0x00000b90       0x18 /home/kosmick/chiffos/ChiffOS/libc/libc.a(lib_a-__call_atexit.o)
 .debug_ranges  0x00000ba8       0x40 /home/kosmick/chiffos/ChiffOS/libc/libc.a(lib_a-fputwc.o)
 .debug_ranges  0x00000be8       0x20 /home/kosmick/chiffos/ChiffOS/libc/libc.a(lib_a-gdtoa-gethex.o)
 .debug_ranges  0x00000c08       0x48 /home/kosmick/chiffos/ChiffOS/libc/libc.a(lib_a-mprec.o)
 .debug_ranges  0x00000c50       0x38 /home/kosmick/chiffos/ChiffOS/libc/libc.a(lib_a-s_copysign.o)
 .debug_ranges  0x00000c88       0x30 /home/kosmick/chiffos/ChiffOS/libc/libc.a(lib_a-svfiprintf.o)
 .debug_ranges  0x00000cb8      0x170 /home/kosmick/chiffos/ChiffOS/libc/libc.a(lib_a-svfscanf.o)
 .debug_ranges  0x00000e28       0xd8 /home/kosmick/chiffos/ChiffOS/libc/libc.a(lib_a-svfiscanf.o)
 .debug_ranges  0x00000f00       0x38 /home/kosmick/chiffos/ChiffOS/libc/libm.a(lib_a-s_atan.o)
 .debug_ranges  0x00000f38       0x40 /home/kosmick/chiffos/ChiffOS/libc/libm.a(lib_a-s_floor.o)
 .debug_ranges  0x00000f78       0x50 /home/kosmick/chiffos/ChiffOS/libc/libm.a(lib_a-e_asin.o)
 .debug_ranges  0x00000fc8       0x48 /home/kosmick/chiffos/ChiffOS/libc/libm.a(lib_a-e_exp.o)
 .debug_ranges  0x00001010       0x20 /home/kosmick/chiffos/ChiffOS/libc/libm.a(lib_a-e_log.o)
 .debug_ranges  0x00001030      0x128 /home/kosmick/chiffos/ChiffOS/libc/libm.a(lib_a-e_pow.o)
 .debug_ranges  0x00001158       0x68 /home/kosmick/chiffos/ChiffOS/libc/libm.a(lib_a-e_rem_pio2.o)
 .debug_ranges  0x000011c0       0x30 /home/kosmick/chiffos/ChiffOS/libc/libm.a(lib_a-e_sqrt.o)
 .debug_ranges  0x000011f0       0x50 /home/kosmick/chiffos/ChiffOS/libc/libm.a(lib_a-s_rint.o)
